ARM GAS  C:\Users\chiva\AppData\Local\Temp\ccRS7OOb.s 			page 1


   1              		.syntax unified
   2              		.cpu cortex-m0
   3              		.fpu softvfp
   4              		.eabi_attribute 20, 1
   5              		.eabi_attribute 21, 1
   6              		.eabi_attribute 23, 3
   7              		.eabi_attribute 24, 1
   8              		.eabi_attribute 25, 1
   9              		.eabi_attribute 26, 1
  10              		.eabi_attribute 30, 1
  11              		.eabi_attribute 34, 0
  12              		.eabi_attribute 18, 4
  13              		.thumb
  14              		.syntax unified
  15              		.file	"BLE_1_ans.c"
  16              		.text
  17              	.Ltext0:
  18              		.cfi_sections	.debug_frame
  19              		.section	.text.CyBle_AnsInit,"ax",%progbits
  20              		.align	2
  21              		.global	CyBle_AnsInit
  22              		.code	16
  23              		.thumb_func
  24              		.type	CyBle_AnsInit, %function
  25              	CyBle_AnsInit:
  26              	.LFB2:
  27              		.file 1 "Generated_Source\\PSoC4\\BLE_1_ans.c"
   1:Generated_Source\PSoC4/BLE_1_ans.c **** /***************************************************************************//**
   2:Generated_Source\PSoC4/BLE_1_ans.c **** * \file CYBLE_ans.c
   3:Generated_Source\PSoC4/BLE_1_ans.c **** * \version 3.50
   4:Generated_Source\PSoC4/BLE_1_ans.c **** * 
   5:Generated_Source\PSoC4/BLE_1_ans.c **** * \brief
   6:Generated_Source\PSoC4/BLE_1_ans.c **** *  Contains the source code for Alert Notification Service.
   7:Generated_Source\PSoC4/BLE_1_ans.c **** * 
   8:Generated_Source\PSoC4/BLE_1_ans.c **** ********************************************************************************
   9:Generated_Source\PSoC4/BLE_1_ans.c **** * \copyright
  10:Generated_Source\PSoC4/BLE_1_ans.c **** * Copyright 2014-2018, Cypress Semiconductor Corporation.  All rights reserved.
  11:Generated_Source\PSoC4/BLE_1_ans.c **** * You may use this file only in accordance with the license, terms, conditions,
  12:Generated_Source\PSoC4/BLE_1_ans.c **** * disclaimers, and limitations in the end user license agreement accompanying
  13:Generated_Source\PSoC4/BLE_1_ans.c **** * the software package with which this file was provided.
  14:Generated_Source\PSoC4/BLE_1_ans.c **** *******************************************************************************/
  15:Generated_Source\PSoC4/BLE_1_ans.c **** 
  16:Generated_Source\PSoC4/BLE_1_ans.c **** 
  17:Generated_Source\PSoC4/BLE_1_ans.c **** #include "BLE_1_eventHandler.h"
  18:Generated_Source\PSoC4/BLE_1_ans.c **** 
  19:Generated_Source\PSoC4/BLE_1_ans.c **** static CYBLE_CALLBACK_T CyBle_AnsApplCallback = NULL;
  20:Generated_Source\PSoC4/BLE_1_ans.c **** 
  21:Generated_Source\PSoC4/BLE_1_ans.c **** #ifdef CYBLE_ANS_SERVER
  22:Generated_Source\PSoC4/BLE_1_ans.c **** 
  23:Generated_Source\PSoC4/BLE_1_ans.c **** const CYBLE_ANSS_T cyBle_anss =
  24:Generated_Source\PSoC4/BLE_1_ans.c **** {
  25:Generated_Source\PSoC4/BLE_1_ans.c ****     0x0010u,    /* Handle of the ANS service */
  26:Generated_Source\PSoC4/BLE_1_ans.c ****     {
  27:Generated_Source\PSoC4/BLE_1_ans.c ****         
  28:Generated_Source\PSoC4/BLE_1_ans.c ****         /* Supported New Alert Category characteristic */
  29:Generated_Source\PSoC4/BLE_1_ans.c ****         {
  30:Generated_Source\PSoC4/BLE_1_ans.c ****             0x0012u, /* Handle of the Supported New Alert Category characteristic */ 
ARM GAS  C:\Users\chiva\AppData\Local\Temp\ccRS7OOb.s 			page 2


  31:Generated_Source\PSoC4/BLE_1_ans.c ****             
  32:Generated_Source\PSoC4/BLE_1_ans.c ****             /* Array of Descriptors handles */
  33:Generated_Source\PSoC4/BLE_1_ans.c ****             {
  34:Generated_Source\PSoC4/BLE_1_ans.c ****                 CYBLE_GATT_INVALID_ATTR_HANDLE_VALUE, 
  35:Generated_Source\PSoC4/BLE_1_ans.c ****             }, 
  36:Generated_Source\PSoC4/BLE_1_ans.c ****         }, 
  37:Generated_Source\PSoC4/BLE_1_ans.c ****         
  38:Generated_Source\PSoC4/BLE_1_ans.c ****         /* New Alert characteristic */
  39:Generated_Source\PSoC4/BLE_1_ans.c ****         {
  40:Generated_Source\PSoC4/BLE_1_ans.c ****             0x0014u, /* Handle of the New Alert characteristic */ 
  41:Generated_Source\PSoC4/BLE_1_ans.c ****             
  42:Generated_Source\PSoC4/BLE_1_ans.c ****             /* Array of Descriptors handles */
  43:Generated_Source\PSoC4/BLE_1_ans.c ****             {
  44:Generated_Source\PSoC4/BLE_1_ans.c ****                 0x0015u, /* Handle of the Client Characteristic Configuration descriptor */ 
  45:Generated_Source\PSoC4/BLE_1_ans.c ****             }, 
  46:Generated_Source\PSoC4/BLE_1_ans.c ****         }, 
  47:Generated_Source\PSoC4/BLE_1_ans.c ****         
  48:Generated_Source\PSoC4/BLE_1_ans.c ****         /* Supported Unread Alert Category characteristic */
  49:Generated_Source\PSoC4/BLE_1_ans.c ****         {
  50:Generated_Source\PSoC4/BLE_1_ans.c ****             0x0017u, /* Handle of the Supported Unread Alert Category characteristic */ 
  51:Generated_Source\PSoC4/BLE_1_ans.c ****             
  52:Generated_Source\PSoC4/BLE_1_ans.c ****             /* Array of Descriptors handles */
  53:Generated_Source\PSoC4/BLE_1_ans.c ****             {
  54:Generated_Source\PSoC4/BLE_1_ans.c ****                 CYBLE_GATT_INVALID_ATTR_HANDLE_VALUE, 
  55:Generated_Source\PSoC4/BLE_1_ans.c ****             }, 
  56:Generated_Source\PSoC4/BLE_1_ans.c ****         }, 
  57:Generated_Source\PSoC4/BLE_1_ans.c ****         
  58:Generated_Source\PSoC4/BLE_1_ans.c ****         /* Unread Alert Status characteristic */
  59:Generated_Source\PSoC4/BLE_1_ans.c ****         {
  60:Generated_Source\PSoC4/BLE_1_ans.c ****             0x0019u, /* Handle of the Unread Alert Status characteristic */ 
  61:Generated_Source\PSoC4/BLE_1_ans.c ****             
  62:Generated_Source\PSoC4/BLE_1_ans.c ****             /* Array of Descriptors handles */
  63:Generated_Source\PSoC4/BLE_1_ans.c ****             {
  64:Generated_Source\PSoC4/BLE_1_ans.c ****                 0x001Au, /* Handle of the Client Characteristic Configuration descriptor */ 
  65:Generated_Source\PSoC4/BLE_1_ans.c ****             }, 
  66:Generated_Source\PSoC4/BLE_1_ans.c ****         }, 
  67:Generated_Source\PSoC4/BLE_1_ans.c ****         
  68:Generated_Source\PSoC4/BLE_1_ans.c ****         /* Alert Notification Control Point characteristic */
  69:Generated_Source\PSoC4/BLE_1_ans.c ****         {
  70:Generated_Source\PSoC4/BLE_1_ans.c ****             0x001Cu, /* Handle of the Alert Notification Control Point characteristic */ 
  71:Generated_Source\PSoC4/BLE_1_ans.c ****             
  72:Generated_Source\PSoC4/BLE_1_ans.c ****             /* Array of Descriptors handles */
  73:Generated_Source\PSoC4/BLE_1_ans.c ****             {
  74:Generated_Source\PSoC4/BLE_1_ans.c ****                 CYBLE_GATT_INVALID_ATTR_HANDLE_VALUE, 
  75:Generated_Source\PSoC4/BLE_1_ans.c ****             }, 
  76:Generated_Source\PSoC4/BLE_1_ans.c ****         }, 
  77:Generated_Source\PSoC4/BLE_1_ans.c ****     },
  78:Generated_Source\PSoC4/BLE_1_ans.c **** };
  79:Generated_Source\PSoC4/BLE_1_ans.c ****     
  80:Generated_Source\PSoC4/BLE_1_ans.c **** #endif /* CYBLE_ANS_SERVER */
  81:Generated_Source\PSoC4/BLE_1_ans.c **** 
  82:Generated_Source\PSoC4/BLE_1_ans.c **** #ifdef CYBLE_ANS_CLIENT
  83:Generated_Source\PSoC4/BLE_1_ans.c **** 
  84:Generated_Source\PSoC4/BLE_1_ans.c **** CYBLE_ANSC_T cyBle_ansc;
  85:Generated_Source\PSoC4/BLE_1_ans.c ****     
  86:Generated_Source\PSoC4/BLE_1_ans.c **** static CYBLE_GATT_DB_ATTR_HANDLE_T cyBle_anscReqHandle;
  87:Generated_Source\PSoC4/BLE_1_ans.c **** 
ARM GAS  C:\Users\chiva\AppData\Local\Temp\ccRS7OOb.s 			page 3


  88:Generated_Source\PSoC4/BLE_1_ans.c **** #endif /* (CYBLE_ANS_CLIENT) */
  89:Generated_Source\PSoC4/BLE_1_ans.c **** 
  90:Generated_Source\PSoC4/BLE_1_ans.c **** 
  91:Generated_Source\PSoC4/BLE_1_ans.c **** /****************************************************************************** 
  92:Generated_Source\PSoC4/BLE_1_ans.c **** * Function Name: CyBle_AnsInit
  93:Generated_Source\PSoC4/BLE_1_ans.c **** ***************************************************************************//**
  94:Generated_Source\PSoC4/BLE_1_ans.c **** * 
  95:Generated_Source\PSoC4/BLE_1_ans.c **** *  This function initializes the Alert Notification Service.
  96:Generated_Source\PSoC4/BLE_1_ans.c **** * 
  97:Generated_Source\PSoC4/BLE_1_ans.c **** ******************************************************************************/
  98:Generated_Source\PSoC4/BLE_1_ans.c **** void CyBle_AnsInit(void)
  99:Generated_Source\PSoC4/BLE_1_ans.c **** {
  28              		.loc 1 99 0
  29              		.cfi_startproc
  30              		@ args = 0, pretend = 0, frame = 0
  31              		@ frame_needed = 0, uses_anonymous_args = 0
  32              		@ link register save eliminated.
 100:Generated_Source\PSoC4/BLE_1_ans.c **** 
 101:Generated_Source\PSoC4/BLE_1_ans.c **** #ifdef CYBLE_ANS_CLIENT
 102:Generated_Source\PSoC4/BLE_1_ans.c **** 
 103:Generated_Source\PSoC4/BLE_1_ans.c ****     if(cyBle_serverInfo[CYBLE_SRVI_ANS].range.startHandle == CYBLE_GATT_INVALID_ATTR_HANDLE_VALUE)
 104:Generated_Source\PSoC4/BLE_1_ans.c ****     {
 105:Generated_Source\PSoC4/BLE_1_ans.c ****         (void)memset(&cyBle_ansc, 0, sizeof(cyBle_ansc));
 106:Generated_Source\PSoC4/BLE_1_ans.c ****     }
 107:Generated_Source\PSoC4/BLE_1_ans.c ****     cyBle_anscReqHandle = CYBLE_GATT_INVALID_ATTR_HANDLE_VALUE;
 108:Generated_Source\PSoC4/BLE_1_ans.c **** 
 109:Generated_Source\PSoC4/BLE_1_ans.c **** #endif /* CYBLE_ANS_CLIENT */
 110:Generated_Source\PSoC4/BLE_1_ans.c **** 
 111:Generated_Source\PSoC4/BLE_1_ans.c **** }
  33              		.loc 1 111 0
  34              		@ sp needed
  35 0000 7047     		bx	lr
  36              		.cfi_endproc
  37              	.LFE2:
  38              		.size	CyBle_AnsInit, .-CyBle_AnsInit
  39 0002 C046     		.section	.text.CyBle_AnsRegisterAttrCallback,"ax",%progbits
  40              		.align	2
  41              		.global	CyBle_AnsRegisterAttrCallback
  42              		.code	16
  43              		.thumb_func
  44              		.type	CyBle_AnsRegisterAttrCallback, %function
  45              	CyBle_AnsRegisterAttrCallback:
  46              	.LFB3:
 112:Generated_Source\PSoC4/BLE_1_ans.c **** 
 113:Generated_Source\PSoC4/BLE_1_ans.c **** 
 114:Generated_Source\PSoC4/BLE_1_ans.c **** /******************************************************************************
 115:Generated_Source\PSoC4/BLE_1_ans.c **** * Function Name: CyBle_AnsRegisterAttrCallback
 116:Generated_Source\PSoC4/BLE_1_ans.c **** ***************************************************************************//**
 117:Generated_Source\PSoC4/BLE_1_ans.c **** * 
 118:Generated_Source\PSoC4/BLE_1_ans.c **** *  Registers a callback function for Alert Notification Service specific
 119:Generated_Source\PSoC4/BLE_1_ans.c **** *  attribute operations.
 120:Generated_Source\PSoC4/BLE_1_ans.c **** *  Service specific write requests from peer device will not be handled with
 121:Generated_Source\PSoC4/BLE_1_ans.c **** *  unregistered callback function.
 122:Generated_Source\PSoC4/BLE_1_ans.c **** * 
 123:Generated_Source\PSoC4/BLE_1_ans.c **** *  \param callbackFunc: An application layer event callback function to receive 
 124:Generated_Source\PSoC4/BLE_1_ans.c **** *                    service specific events from the BLE Component. The 
 125:Generated_Source\PSoC4/BLE_1_ans.c **** *                    definition of CYBLE_CALLBACK_T for Alert Notification
ARM GAS  C:\Users\chiva\AppData\Local\Temp\ccRS7OOb.s 			page 4


 126:Generated_Source\PSoC4/BLE_1_ans.c **** *                    Service is,\n
 127:Generated_Source\PSoC4/BLE_1_ans.c **** *                    typedef void (* CYBLE_CALLBACK_T) 
 128:Generated_Source\PSoC4/BLE_1_ans.c **** *                        (uint32 eventCode, void *eventParam)
 129:Generated_Source\PSoC4/BLE_1_ans.c **** *                    * eventCode indicates the event that triggered this 
 130:Generated_Source\PSoC4/BLE_1_ans.c **** *                       callback (e.g. CYBLE_EVT_ANSS_NOTIFICATION_ENABLED) 
 131:Generated_Source\PSoC4/BLE_1_ans.c **** *                    * eventParam contains the parameters corresponding to 
 132:Generated_Source\PSoC4/BLE_1_ans.c **** *                      the current event (e.g. Pointer to CYBLE_ANS_CHAR_VALUE_T 
 133:Generated_Source\PSoC4/BLE_1_ans.c **** *                      structure that contains details of the  characteristic
 134:Generated_Source\PSoC4/BLE_1_ans.c **** *                      for which notification enabled event was triggered).
 135:Generated_Source\PSoC4/BLE_1_ans.c **** *
 136:Generated_Source\PSoC4/BLE_1_ans.c **** * \sideeffect 
 137:Generated_Source\PSoC4/BLE_1_ans.c **** *  The *eventParams in the callback function should not be used by the 
 138:Generated_Source\PSoC4/BLE_1_ans.c **** *  application once the callback function execution is finished. Otherwise 
 139:Generated_Source\PSoC4/BLE_1_ans.c **** *  this data may become corrupted.
 140:Generated_Source\PSoC4/BLE_1_ans.c **** * 
 141:Generated_Source\PSoC4/BLE_1_ans.c **** ******************************************************************************/
 142:Generated_Source\PSoC4/BLE_1_ans.c **** void CyBle_AnsRegisterAttrCallback(CYBLE_CALLBACK_T callbackFunc)
 143:Generated_Source\PSoC4/BLE_1_ans.c **** {
  47              		.loc 1 143 0
  48              		.cfi_startproc
  49              		@ args = 0, pretend = 0, frame = 0
  50              		@ frame_needed = 0, uses_anonymous_args = 0
  51              		@ link register save eliminated.
  52              	.LVL0:
 144:Generated_Source\PSoC4/BLE_1_ans.c ****     CyBle_AnsApplCallback = callbackFunc;
  53              		.loc 1 144 0
  54 0000 014B     		ldr	r3, .L3
  55 0002 1860     		str	r0, [r3]
 145:Generated_Source\PSoC4/BLE_1_ans.c **** }
  56              		.loc 1 145 0
  57              		@ sp needed
  58 0004 7047     		bx	lr
  59              	.L4:
  60 0006 C046     		.align	2
  61              	.L3:
  62 0008 00000000 		.word	.LANCHOR0
  63              		.cfi_endproc
  64              	.LFE3:
  65              		.size	CyBle_AnsRegisterAttrCallback, .-CyBle_AnsRegisterAttrCallback
  66              		.section	.text.CyBle_AnssWriteEventHandler,"ax",%progbits
  67              		.align	2
  68              		.global	CyBle_AnssWriteEventHandler
  69              		.code	16
  70              		.thumb_func
  71              		.type	CyBle_AnssWriteEventHandler, %function
  72              	CyBle_AnssWriteEventHandler:
  73              	.LFB4:
 146:Generated_Source\PSoC4/BLE_1_ans.c **** 
 147:Generated_Source\PSoC4/BLE_1_ans.c **** 
 148:Generated_Source\PSoC4/BLE_1_ans.c **** #ifdef CYBLE_ANS_SERVER
 149:Generated_Source\PSoC4/BLE_1_ans.c **** 
 150:Generated_Source\PSoC4/BLE_1_ans.c **** /******************************************************************************
 151:Generated_Source\PSoC4/BLE_1_ans.c **** * Function Name: CyBle_AnssWriteEventHandler
 152:Generated_Source\PSoC4/BLE_1_ans.c **** ***************************************************************************//**
 153:Generated_Source\PSoC4/BLE_1_ans.c **** * 
 154:Generated_Source\PSoC4/BLE_1_ans.c **** *  Handles Write Request Event for Alert Notification Service.
 155:Generated_Source\PSoC4/BLE_1_ans.c **** * 
ARM GAS  C:\Users\chiva\AppData\Local\Temp\ccRS7OOb.s 			page 5


 156:Generated_Source\PSoC4/BLE_1_ans.c **** *  \param eventParam: The pointer to the data that came with a write request for
 157:Generated_Source\PSoC4/BLE_1_ans.c **** *                Alert Notification Service.
 158:Generated_Source\PSoC4/BLE_1_ans.c **** * 
 159:Generated_Source\PSoC4/BLE_1_ans.c **** * \return
 160:Generated_Source\PSoC4/BLE_1_ans.c **** *  Return a value of type CYBLE_GATT_ERR_CODE_T:
 161:Generated_Source\PSoC4/BLE_1_ans.c **** *   * CYBLE_GATT_ERR_NONE - The function terminated successfully.
 162:Generated_Source\PSoC4/BLE_1_ans.c **** *   * CYBLE_GATT_ERR_INVALID_HANDLE - The handle of Client Configuration
 163:Generated_Source\PSoC4/BLE_1_ans.c **** *     Characteristic Descriptor or Characteristic of Alert Notification Service
 164:Generated_Source\PSoC4/BLE_1_ans.c **** * 	is not valid.
 165:Generated_Source\PSoC4/BLE_1_ans.c **** *   * CYBLE_GATT_ERR_UNLIKELY_ERROR - An Internal Stack error occurred.
 166:Generated_Source\PSoC4/BLE_1_ans.c **** *   * CYBLE_GATT_ERR_REQUEST_NOT_SUPPORTED - The notification property of a 
 167:Generated_Source\PSoC4/BLE_1_ans.c **** *     specific characteristic of Alert Notification Service is disabled.
 168:Generated_Source\PSoC4/BLE_1_ans.c **** * 
 169:Generated_Source\PSoC4/BLE_1_ans.c **** ******************************************************************************/
 170:Generated_Source\PSoC4/BLE_1_ans.c **** CYBLE_GATT_ERR_CODE_T CyBle_AnssWriteEventHandler(CYBLE_GATTS_WRITE_REQ_PARAM_T *eventParam)
 171:Generated_Source\PSoC4/BLE_1_ans.c **** {
  74              		.loc 1 171 0
  75              		.cfi_startproc
  76              		@ args = 0, pretend = 0, frame = 8
  77              		@ frame_needed = 0, uses_anonymous_args = 0
  78              	.LVL1:
  79 0000 70B5     		push	{r4, r5, r6, lr}
  80              		.cfi_def_cfa_offset 16
  81              		.cfi_offset 4, -16
  82              		.cfi_offset 5, -12
  83              		.cfi_offset 6, -8
  84              		.cfi_offset 14, -4
  85 0002 82B0     		sub	sp, sp, #8
  86              		.cfi_def_cfa_offset 24
  87 0004 0500     		movs	r5, r0
  88              	.LVL2:
 172:Generated_Source\PSoC4/BLE_1_ans.c ****     CYBLE_ANS_CHAR_VALUE_T wrReqParam;
 173:Generated_Source\PSoC4/BLE_1_ans.c ****     CYBLE_GATT_DB_ATTR_HANDLE_T tmpHandle;
 174:Generated_Source\PSoC4/BLE_1_ans.c ****     CYBLE_GATT_ERR_CODE_T gattErr = CYBLE_GATT_ERR_NONE;
 175:Generated_Source\PSoC4/BLE_1_ans.c ****     uint8 flag = 0u;
 176:Generated_Source\PSoC4/BLE_1_ans.c ****     uint32 event = (uint32)CYBLE_EVT_ANSS_CHAR_WRITE;
 177:Generated_Source\PSoC4/BLE_1_ans.c ****     
 178:Generated_Source\PSoC4/BLE_1_ans.c ****     tmpHandle = eventParam->handleValPair.attrHandle;
  89              		.loc 1 178 0
  90 0006 8489     		ldrh	r4, [r0, #12]
  91              	.LVL3:
 179:Generated_Source\PSoC4/BLE_1_ans.c ****     
 180:Generated_Source\PSoC4/BLE_1_ans.c ****     /* Client Characteristic Configuration Descriptor Write Request */
 181:Generated_Source\PSoC4/BLE_1_ans.c ****     if((tmpHandle == cyBle_anss.charInfo[CYBLE_ANS_NEW_ALERT].descrHandle[CYBLE_ANS_CCCD]) || 
  92              		.loc 1 181 0
  93 0008 152C     		cmp	r4, #21
  94 000a 01D0     		beq	.L6
  95              		.loc 1 181 0 is_stmt 0 discriminator 1
  96 000c 1A2C     		cmp	r4, #26
  97 000e 2BD1     		bne	.L7
  98              	.L6:
 182:Generated_Source\PSoC4/BLE_1_ans.c ****         (tmpHandle == cyBle_anss.charInfo[CYBLE_ANS_UNREAD_ALERT_STATUS].descrHandle[CYBLE_ANS_CCCD
 183:Generated_Source\PSoC4/BLE_1_ans.c ****     {   
 184:Generated_Source\PSoC4/BLE_1_ans.c ****         /* Verify that optional notification property is enabled for Characteristic */
 185:Generated_Source\PSoC4/BLE_1_ans.c ****         if(CYBLE_IS_NOTIFICATION_SUPPORTED(cyBle_anss.charInfo[CYBLE_ANS_NEW_ALERT].charHandle) ||
  99              		.loc 1 185 0 is_stmt 1
 100 0010 C023     		movs	r3, #192
ARM GAS  C:\Users\chiva\AppData\Local\Temp\ccRS7OOb.s 			page 6


 101 0012 5B00     		lsls	r3, r3, #1
 102 0014 3C4A     		ldr	r2, .L20
 103 0016 D358     		ldr	r3, [r2, r3]
 104 0018 DB02     		lsls	r3, r3, #11
 105 001a 04D4     		bmi	.L8
 186:Generated_Source\PSoC4/BLE_1_ans.c ****             CYBLE_IS_NOTIFICATION_SUPPORTED(cyBle_anss.charInfo[CYBLE_ANS_UNREAD_ALERT_STATUS].char
 106              		.loc 1 186 0 discriminator 1
 107 001c F223     		movs	r3, #242
 108 001e 5B00     		lsls	r3, r3, #1
 109 0020 D358     		ldr	r3, [r2, r3]
 185:Generated_Source\PSoC4/BLE_1_ans.c ****             CYBLE_IS_NOTIFICATION_SUPPORTED(cyBle_anss.charInfo[CYBLE_ANS_UNREAD_ALERT_STATUS].char
 110              		.loc 1 185 0 discriminator 1
 111 0022 DB02     		lsls	r3, r3, #11
 112 0024 3FD5     		bpl	.L16
 113              	.L8:
 187:Generated_Source\PSoC4/BLE_1_ans.c ****         {
 188:Generated_Source\PSoC4/BLE_1_ans.c ****             if(CYBLE_IS_NOTIFICATION_ENABLED_IN_PTR(eventParam->handleValPair.value.val))
 114              		.loc 1 188 0
 115 0026 6868     		ldr	r0, [r5, #4]
 116              	.LVL4:
 117 0028 FFF7FEFF 		bl	CyBle_Get16ByPtr
 118              	.LVL5:
 119 002c C307     		lsls	r3, r0, #31
 120 002e 02D5     		bpl	.L17
 189:Generated_Source\PSoC4/BLE_1_ans.c ****             {
 190:Generated_Source\PSoC4/BLE_1_ans.c ****                 event = (uint32)CYBLE_EVT_ANSS_NOTIFICATION_ENABLED;
 121              		.loc 1 190 0
 122 0030 2A26     		movs	r6, #42
 123 0032 FF36     		adds	r6, r6, #255
 124 0034 01E0     		b	.L10
 125              	.L17:
 191:Generated_Source\PSoC4/BLE_1_ans.c ****             }
 192:Generated_Source\PSoC4/BLE_1_ans.c ****             else
 193:Generated_Source\PSoC4/BLE_1_ans.c ****             {
 194:Generated_Source\PSoC4/BLE_1_ans.c ****                 event = (uint32)CYBLE_EVT_ANSS_NOTIFICATION_DISABLED;
 126              		.loc 1 194 0
 127 0036 9526     		movs	r6, #149
 128 0038 7600     		lsls	r6, r6, #1
 129              	.L10:
 130              	.LVL6:
 195:Generated_Source\PSoC4/BLE_1_ans.c ****             }
 196:Generated_Source\PSoC4/BLE_1_ans.c ****             
 197:Generated_Source\PSoC4/BLE_1_ans.c ****             if(tmpHandle == cyBle_anss.charInfo[CYBLE_ANS_NEW_ALERT].descrHandle[CYBLE_ANS_CCCD])
 131              		.loc 1 197 0
 132 003a 152C     		cmp	r4, #21
 133 003c 03D1     		bne	.L11
 198:Generated_Source\PSoC4/BLE_1_ans.c ****             {
 199:Generated_Source\PSoC4/BLE_1_ans.c ****                 wrReqParam.charIndex = CYBLE_ANS_NEW_ALERT;
 134              		.loc 1 199 0
 135 003e 0123     		movs	r3, #1
 136 0040 6A46     		mov	r2, sp
 137 0042 9370     		strb	r3, [r2, #2]
 138 0044 02E0     		b	.L12
 139              	.L11:
 200:Generated_Source\PSoC4/BLE_1_ans.c ****             }
 201:Generated_Source\PSoC4/BLE_1_ans.c ****             else
 202:Generated_Source\PSoC4/BLE_1_ans.c ****             {
ARM GAS  C:\Users\chiva\AppData\Local\Temp\ccRS7OOb.s 			page 7


 203:Generated_Source\PSoC4/BLE_1_ans.c ****                 wrReqParam.charIndex = CYBLE_ANS_UNREAD_ALERT_STATUS;
 140              		.loc 1 203 0
 141 0046 0323     		movs	r3, #3
 142 0048 6A46     		mov	r2, sp
 143 004a 9370     		strb	r3, [r2, #2]
 144              	.L12:
 204:Generated_Source\PSoC4/BLE_1_ans.c ****             }
 205:Generated_Source\PSoC4/BLE_1_ans.c ****             
 206:Generated_Source\PSoC4/BLE_1_ans.c ****             /* Value is NULL for descriptors */
 207:Generated_Source\PSoC4/BLE_1_ans.c ****             wrReqParam.value = NULL;
 145              		.loc 1 207 0
 146 004c 0023     		movs	r3, #0
 147 004e 0193     		str	r3, [sp, #4]
 208:Generated_Source\PSoC4/BLE_1_ans.c ****         #if((CYBLE_GAP_ROLE_PERIPHERAL || CYBLE_GAP_ROLE_CENTRAL) && (CYBLE_BONDING_REQUIREMENT == 
 209:Generated_Source\PSoC4/BLE_1_ans.c ****             /* Set flag to store bonding data to flash */
 210:Generated_Source\PSoC4/BLE_1_ans.c ****             if(cyBle_peerBonding == CYBLE_GAP_BONDING)
 148              		.loc 1 210 0
 149 0050 2E4B     		ldr	r3, .L20+4
 150 0052 1B78     		ldrb	r3, [r3]
 151 0054 012B     		cmp	r3, #1
 152 0056 2BD1     		bne	.L18
 211:Generated_Source\PSoC4/BLE_1_ans.c ****             {
 212:Generated_Source\PSoC4/BLE_1_ans.c ****                 cyBle_pendingFlashWrite |= CYBLE_PENDING_CCCD_FLASH_WRITE_BIT;
 153              		.loc 1 212 0
 154 0058 2D4A     		ldr	r2, .L20+8
 155 005a 1178     		ldrb	r1, [r2]
 156 005c 0223     		movs	r3, #2
 157 005e 0B43     		orrs	r3, r1
 158 0060 1370     		strb	r3, [r2]
 175:Generated_Source\PSoC4/BLE_1_ans.c ****     uint32 event = (uint32)CYBLE_EVT_ANSS_CHAR_WRITE;
 159              		.loc 1 175 0
 160 0062 0023     		movs	r3, #0
 174:Generated_Source\PSoC4/BLE_1_ans.c ****     uint8 flag = 0u;
 161              		.loc 1 174 0
 162 0064 0024     		movs	r4, #0
 163              	.LVL7:
 164 0066 2AE0     		b	.L9
 165              	.LVL8:
 166              	.L7:
 213:Generated_Source\PSoC4/BLE_1_ans.c ****             }
 214:Generated_Source\PSoC4/BLE_1_ans.c ****         #endif /* (CYBLE_BONDING_REQUIREMENT == CYBLE_BONDING_YES) */
 215:Generated_Source\PSoC4/BLE_1_ans.c ****         }
 216:Generated_Source\PSoC4/BLE_1_ans.c ****         else
 217:Generated_Source\PSoC4/BLE_1_ans.c ****         {
 218:Generated_Source\PSoC4/BLE_1_ans.c ****             gattErr = CYBLE_GATT_ERR_REQUEST_NOT_SUPPORTED;
 219:Generated_Source\PSoC4/BLE_1_ans.c ****         }
 220:Generated_Source\PSoC4/BLE_1_ans.c ****     }
 221:Generated_Source\PSoC4/BLE_1_ans.c ****     else if(tmpHandle == cyBle_anss.charInfo[CYBLE_ANS_ALERT_NTF_CONTROL_POINT].charHandle)
 167              		.loc 1 221 0
 168 0068 1C2C     		cmp	r4, #28
 169 006a 24D1     		bne	.L19
 222:Generated_Source\PSoC4/BLE_1_ans.c ****     {
 223:Generated_Source\PSoC4/BLE_1_ans.c **** 		/* Validate Command ID and Category ID ranges */
 224:Generated_Source\PSoC4/BLE_1_ans.c ****         if((eventParam->handleValPair.value.val[0u] <= CYBLE_ANS_IMM_UNREAD_ALERT_STATUS_NTF) &&
 170              		.loc 1 224 0
 171 006c 4368     		ldr	r3, [r0, #4]
 172 006e 1A78     		ldrb	r2, [r3]
ARM GAS  C:\Users\chiva\AppData\Local\Temp\ccRS7OOb.s 			page 8


 173 0070 052A     		cmp	r2, #5
 174 0072 0ED8     		bhi	.L13
 225:Generated_Source\PSoC4/BLE_1_ans.c ****             ((eventParam->handleValPair.value.val[1u] <= CYBLE_ANS_CAT_ID_INSTANT_MESSAGE) ||
 175              		.loc 1 225 0 discriminator 1
 176 0074 5B78     		ldrb	r3, [r3, #1]
 177 0076 0A3B     		subs	r3, r3, #10
 178 0078 DBB2     		uxtb	r3, r3
 224:Generated_Source\PSoC4/BLE_1_ans.c ****             ((eventParam->handleValPair.value.val[1u] <= CYBLE_ANS_CAT_ID_INSTANT_MESSAGE) ||
 179              		.loc 1 224 0 discriminator 1
 180 007a F42B     		cmp	r3, #244
 181 007c 09D9     		bls	.L13
 226:Generated_Source\PSoC4/BLE_1_ans.c ****                 (eventParam->handleValPair.value.val[1u] == CYBLE_ANS_CAT_ID_ALL)))
 227:Generated_Source\PSoC4/BLE_1_ans.c ****         {
 228:Generated_Source\PSoC4/BLE_1_ans.c ****             wrReqParam.charIndex = CYBLE_ANS_ALERT_NTF_CONTROL_POINT;
 182              		.loc 1 228 0
 183 007e 0423     		movs	r3, #4
 184 0080 6A46     		mov	r2, sp
 185 0082 9370     		strb	r3, [r2, #2]
 229:Generated_Source\PSoC4/BLE_1_ans.c ****             wrReqParam.value = &eventParam->handleValPair.value;
 186              		.loc 1 229 0
 187 0084 031D     		adds	r3, r0, #4
 188 0086 0193     		str	r3, [sp, #4]
 176:Generated_Source\PSoC4/BLE_1_ans.c ****     
 189              		.loc 1 176 0
 190 0088 2C26     		movs	r6, #44
 191 008a FF36     		adds	r6, r6, #255
 175:Generated_Source\PSoC4/BLE_1_ans.c ****     uint32 event = (uint32)CYBLE_EVT_ANSS_CHAR_WRITE;
 192              		.loc 1 175 0
 193 008c 0023     		movs	r3, #0
 174:Generated_Source\PSoC4/BLE_1_ans.c ****     uint8 flag = 0u;
 194              		.loc 1 174 0
 195 008e 0024     		movs	r4, #0
 196              	.LVL9:
 197              		.loc 1 229 0
 198 0090 15E0     		b	.L9
 199              	.LVL10:
 200              	.L13:
 230:Generated_Source\PSoC4/BLE_1_ans.c ****         }
 231:Generated_Source\PSoC4/BLE_1_ans.c ****         else /* Command ID or Category ID received is invalid */
 232:Generated_Source\PSoC4/BLE_1_ans.c ****         {
 233:Generated_Source\PSoC4/BLE_1_ans.c **** 			/* Erroneous request won't be notified to user but Error response will be sent. */
 234:Generated_Source\PSoC4/BLE_1_ans.c ****             cyBle_eventHandlerFlag &= (uint8)~CYBLE_CALLBACK;
 201              		.loc 1 234 0
 202 0092 204A     		ldr	r2, .L20+12
 203 0094 1378     		ldrb	r3, [r2]
 204 0096 0121     		movs	r1, #1
 205 0098 8B43     		bics	r3, r1
 206 009a 1370     		strb	r3, [r2]
 207              	.LVL11:
 176:Generated_Source\PSoC4/BLE_1_ans.c ****     
 208              		.loc 1 176 0
 209 009c 2C26     		movs	r6, #44
 210 009e FF36     		adds	r6, r6, #255
 175:Generated_Source\PSoC4/BLE_1_ans.c ****     uint32 event = (uint32)CYBLE_EVT_ANSS_CHAR_WRITE;
 211              		.loc 1 175 0
 212 00a0 0023     		movs	r3, #0
 235:Generated_Source\PSoC4/BLE_1_ans.c ****             
ARM GAS  C:\Users\chiva\AppData\Local\Temp\ccRS7OOb.s 			page 9


 236:Generated_Source\PSoC4/BLE_1_ans.c ****             gattErr = CYBLE_GATT_ERR_ANS_COMMAND_NOT_SUPPORTED;
 213              		.loc 1 236 0
 214 00a2 A024     		movs	r4, #160
 215              	.LVL12:
 216 00a4 0BE0     		b	.L9
 217              	.LVL13:
 218              	.L16:
 176:Generated_Source\PSoC4/BLE_1_ans.c ****     
 219              		.loc 1 176 0
 220 00a6 2C26     		movs	r6, #44
 221 00a8 FF36     		adds	r6, r6, #255
 175:Generated_Source\PSoC4/BLE_1_ans.c ****     uint32 event = (uint32)CYBLE_EVT_ANSS_CHAR_WRITE;
 222              		.loc 1 175 0
 223 00aa 0023     		movs	r3, #0
 218:Generated_Source\PSoC4/BLE_1_ans.c ****         }
 224              		.loc 1 218 0
 225 00ac 0624     		movs	r4, #6
 226              	.LVL14:
 227 00ae 06E0     		b	.L9
 228              	.LVL15:
 229              	.L18:
 175:Generated_Source\PSoC4/BLE_1_ans.c ****     uint32 event = (uint32)CYBLE_EVT_ANSS_CHAR_WRITE;
 230              		.loc 1 175 0
 231 00b0 0023     		movs	r3, #0
 174:Generated_Source\PSoC4/BLE_1_ans.c ****     uint8 flag = 0u;
 232              		.loc 1 174 0
 233 00b2 0024     		movs	r4, #0
 234              	.LVL16:
 235 00b4 03E0     		b	.L9
 236              	.LVL17:
 237              	.L19:
 176:Generated_Source\PSoC4/BLE_1_ans.c ****     
 238              		.loc 1 176 0
 239 00b6 2C26     		movs	r6, #44
 240 00b8 FF36     		adds	r6, r6, #255
 237:Generated_Source\PSoC4/BLE_1_ans.c ****         }
 238:Generated_Source\PSoC4/BLE_1_ans.c ****     }
 239:Generated_Source\PSoC4/BLE_1_ans.c ****     else
 240:Generated_Source\PSoC4/BLE_1_ans.c ****     {
 241:Generated_Source\PSoC4/BLE_1_ans.c ****         /* Requested handle does not belong to Alert Notification Service
 242:Generated_Source\PSoC4/BLE_1_ans.c ****             Characteristic or Descriptor. */
 243:Generated_Source\PSoC4/BLE_1_ans.c ****         flag = 1u;
 241              		.loc 1 243 0
 242 00ba 0123     		movs	r3, #1
 174:Generated_Source\PSoC4/BLE_1_ans.c ****     uint8 flag = 0u;
 243              		.loc 1 174 0
 244 00bc 0024     		movs	r4, #0
 245              	.LVL18:
 246              	.L9:
 244:Generated_Source\PSoC4/BLE_1_ans.c ****     }
 245:Generated_Source\PSoC4/BLE_1_ans.c ****     
 246:Generated_Source\PSoC4/BLE_1_ans.c ****     if((gattErr == CYBLE_GATT_ERR_NONE) && (flag == 0u))
 247              		.loc 1 246 0
 248 00be 002C     		cmp	r4, #0
 249 00c0 18D1     		bne	.L14
 250              		.loc 1 246 0 is_stmt 0 discriminator 1
 251 00c2 002B     		cmp	r3, #0
ARM GAS  C:\Users\chiva\AppData\Local\Temp\ccRS7OOb.s 			page 10


 252 00c4 16D1     		bne	.L14
 247:Generated_Source\PSoC4/BLE_1_ans.c ****     {
 248:Generated_Source\PSoC4/BLE_1_ans.c ****         /* Write value to GATT database */
 249:Generated_Source\PSoC4/BLE_1_ans.c ****         gattErr = CyBle_GattsWriteAttributeValue(&eventParam->handleValPair, 0u, 
 253              		.loc 1 249 0 is_stmt 1
 254 00c6 281D     		adds	r0, r5, #4
 255 00c8 4033     		adds	r3, r3, #64
 256              	.LVL19:
 257 00ca 2A00     		movs	r2, r5
 258 00cc 0021     		movs	r1, #0
 259 00ce FFF7FEFF 		bl	CyBle_GattsWriteAttributeValue
 260              	.LVL20:
 261 00d2 041E     		subs	r4, r0, #0
 262              	.LVL21:
 250:Generated_Source\PSoC4/BLE_1_ans.c ****             &eventParam->connHandle, CYBLE_GATT_DB_PEER_INITIATED);
 251:Generated_Source\PSoC4/BLE_1_ans.c ****         
 252:Generated_Source\PSoC4/BLE_1_ans.c ****         if(gattErr == CYBLE_GATT_ERR_NONE)
 263              		.loc 1 252 0
 264 00d4 0ED1     		bne	.L14
 253:Generated_Source\PSoC4/BLE_1_ans.c ****         {
 254:Generated_Source\PSoC4/BLE_1_ans.c ****             wrReqParam.connHandle = eventParam->connHandle;
 265              		.loc 1 254 0
 266 00d6 2B88     		ldrh	r3, [r5]
 267 00d8 6A46     		mov	r2, sp
 268 00da 1380     		strh	r3, [r2]
 255:Generated_Source\PSoC4/BLE_1_ans.c **** 
 256:Generated_Source\PSoC4/BLE_1_ans.c ****             cyBle_eventHandlerFlag &= (uint8)~CYBLE_CALLBACK;
 269              		.loc 1 256 0
 270 00dc 0D4A     		ldr	r2, .L20+12
 271 00de 1378     		ldrb	r3, [r2]
 272 00e0 0121     		movs	r1, #1
 273 00e2 8B43     		bics	r3, r1
 274 00e4 1370     		strb	r3, [r2]
 257:Generated_Source\PSoC4/BLE_1_ans.c ****             
 258:Generated_Source\PSoC4/BLE_1_ans.c ****             if(NULL != CyBle_AnsApplCallback)
 275              		.loc 1 258 0
 276 00e6 0C4B     		ldr	r3, .L20+16
 277 00e8 1B68     		ldr	r3, [r3]
 278 00ea 002B     		cmp	r3, #0
 279 00ec 02D0     		beq	.L14
 259:Generated_Source\PSoC4/BLE_1_ans.c ****             {
 260:Generated_Source\PSoC4/BLE_1_ans.c ****                 CyBle_AnsApplCallback(event, &wrReqParam);
 280              		.loc 1 260 0
 281 00ee 6946     		mov	r1, sp
 282 00f0 3000     		movs	r0, r6
 283              	.LVL22:
 284 00f2 9847     		blx	r3
 285              	.LVL23:
 286              	.L14:
 261:Generated_Source\PSoC4/BLE_1_ans.c ****             }
 262:Generated_Source\PSoC4/BLE_1_ans.c ****         }
 263:Generated_Source\PSoC4/BLE_1_ans.c ****     }
 264:Generated_Source\PSoC4/BLE_1_ans.c ****     
 265:Generated_Source\PSoC4/BLE_1_ans.c ****     if(CYBLE_GATT_ERR_NONE != gattErr)
 287              		.loc 1 265 0
 288 00f4 002C     		cmp	r4, #0
 289 00f6 04D0     		beq	.L15
ARM GAS  C:\Users\chiva\AppData\Local\Temp\ccRS7OOb.s 			page 11


 266:Generated_Source\PSoC4/BLE_1_ans.c ****     {
 267:Generated_Source\PSoC4/BLE_1_ans.c ****         /* Indicate that request was handled */
 268:Generated_Source\PSoC4/BLE_1_ans.c ****         cyBle_eventHandlerFlag &= (uint8)~CYBLE_CALLBACK;
 290              		.loc 1 268 0
 291 00f8 064A     		ldr	r2, .L20+12
 292 00fa 1378     		ldrb	r3, [r2]
 293 00fc 0121     		movs	r1, #1
 294 00fe 8B43     		bics	r3, r1
 295 0100 1370     		strb	r3, [r2]
 296              	.L15:
 269:Generated_Source\PSoC4/BLE_1_ans.c ****     }
 270:Generated_Source\PSoC4/BLE_1_ans.c **** 
 271:Generated_Source\PSoC4/BLE_1_ans.c ****     return(gattErr);
 272:Generated_Source\PSoC4/BLE_1_ans.c **** }
 297              		.loc 1 272 0
 298 0102 2000     		movs	r0, r4
 299 0104 02B0     		add	sp, sp, #8
 300              		@ sp needed
 301              	.LVL24:
 302              	.LVL25:
 303              	.LVL26:
 304 0106 70BD     		pop	{r4, r5, r6, pc}
 305              	.L21:
 306              		.align	2
 307              	.L20:
 308 0108 00000000 		.word	cyBle_gattDB
 309 010c 00000000 		.word	cyBle_peerBonding
 310 0110 00000000 		.word	cyBle_pendingFlashWrite
 311 0114 00000000 		.word	cyBle_eventHandlerFlag
 312 0118 00000000 		.word	.LANCHOR0
 313              		.cfi_endproc
 314              	.LFE4:
 315              		.size	CyBle_AnssWriteEventHandler, .-CyBle_AnssWriteEventHandler
 316              		.section	.text.CyBle_AnssSetCharacteristicValue,"ax",%progbits
 317              		.align	2
 318              		.global	CyBle_AnssSetCharacteristicValue
 319              		.code	16
 320              		.thumb_func
 321              		.type	CyBle_AnssSetCharacteristicValue, %function
 322              	CyBle_AnssSetCharacteristicValue:
 323              	.LFB5:
 273:Generated_Source\PSoC4/BLE_1_ans.c **** 
 274:Generated_Source\PSoC4/BLE_1_ans.c **** 
 275:Generated_Source\PSoC4/BLE_1_ans.c **** /******************************************************************************
 276:Generated_Source\PSoC4/BLE_1_ans.c **** * Function Name: CyBle_AnssSetCharacteristicValue
 277:Generated_Source\PSoC4/BLE_1_ans.c **** ***************************************************************************//**
 278:Generated_Source\PSoC4/BLE_1_ans.c **** * 
 279:Generated_Source\PSoC4/BLE_1_ans.c **** *  Sets a characteristic value of Alert Notification Service, which is a value
 280:Generated_Source\PSoC4/BLE_1_ans.c **** *  identified by charIndex, to the local database.
 281:Generated_Source\PSoC4/BLE_1_ans.c **** * 
 282:Generated_Source\PSoC4/BLE_1_ans.c **** *  \param charIndex: The index of the service characteristic of type 
 283:Generated_Source\PSoC4/BLE_1_ans.c **** *              CYBLE_ANS_CHAR_INDEX_T. The valid values are,
 284:Generated_Source\PSoC4/BLE_1_ans.c **** *              * CYBLE_ANS_SUPPORTED_NEW_ALERT_CAT
 285:Generated_Source\PSoC4/BLE_1_ans.c **** *              * CYBLE_ANS_SUPPORTED_UNREAD_ALERT_CAT
 286:Generated_Source\PSoC4/BLE_1_ans.c **** *  \param attrSize: The size of the characteristic value attribute.
 287:Generated_Source\PSoC4/BLE_1_ans.c **** *  \param attrValue: The pointer to characteristic value data that should be stored
 288:Generated_Source\PSoC4/BLE_1_ans.c **** *               in the GATT database.
ARM GAS  C:\Users\chiva\AppData\Local\Temp\ccRS7OOb.s 			page 12


 289:Generated_Source\PSoC4/BLE_1_ans.c **** * 
 290:Generated_Source\PSoC4/BLE_1_ans.c **** * \return
 291:Generated_Source\PSoC4/BLE_1_ans.c **** *  Return value is of type CYBLE_API_RESULT_T.
 292:Generated_Source\PSoC4/BLE_1_ans.c **** *  * CYBLE_ERROR_OK - The request is handled successfully.
 293:Generated_Source\PSoC4/BLE_1_ans.c **** *  * CYBLE_ERROR_INVALID_PARAMETER - Validation of the input parameters failed.
 294:Generated_Source\PSoC4/BLE_1_ans.c **** *
 295:Generated_Source\PSoC4/BLE_1_ans.c **** ******************************************************************************/
 296:Generated_Source\PSoC4/BLE_1_ans.c **** CYBLE_API_RESULT_T CyBle_AnssSetCharacteristicValue(CYBLE_ANS_CHAR_INDEX_T charIndex,
 297:Generated_Source\PSoC4/BLE_1_ans.c ****     uint8 attrSize, uint8 *attrValue)
 298:Generated_Source\PSoC4/BLE_1_ans.c **** {
 324              		.loc 1 298 0
 325              		.cfi_startproc
 326              		@ args = 0, pretend = 0, frame = 16
 327              		@ frame_needed = 0, uses_anonymous_args = 0
 328              	.LVL27:
 329 0000 00B5     		push	{lr}
 330              		.cfi_def_cfa_offset 4
 331              		.cfi_offset 14, -4
 332 0002 85B0     		sub	sp, sp, #20
 333              		.cfi_def_cfa_offset 24
 334              	.LVL28:
 299:Generated_Source\PSoC4/BLE_1_ans.c ****     CYBLE_API_RESULT_T apiResult = CYBLE_ERROR_INVALID_PARAMETER;
 300:Generated_Source\PSoC4/BLE_1_ans.c ****     CYBLE_GATT_HANDLE_VALUE_PAIR_T locHandleValuePair;
 301:Generated_Source\PSoC4/BLE_1_ans.c **** 
 302:Generated_Source\PSoC4/BLE_1_ans.c ****     if(charIndex < CYBLE_ANS_CHAR_COUNT)
 335              		.loc 1 302 0
 336 0004 0428     		cmp	r0, #4
 337 0006 10D8     		bhi	.L24
 303:Generated_Source\PSoC4/BLE_1_ans.c ****     {
 304:Generated_Source\PSoC4/BLE_1_ans.c ****         locHandleValuePair.attrHandle = cyBle_anss.charInfo[charIndex].charHandle;
 338              		.loc 1 304 0
 339 0008 8000     		lsls	r0, r0, #2
 340              	.LVL29:
 341 000a 0A4B     		ldr	r3, .L26
 342 000c 1818     		adds	r0, r3, r0
 343 000e 4388     		ldrh	r3, [r0, #2]
 344 0010 01A8     		add	r0, sp, #4
 345 0012 0381     		strh	r3, [r0, #8]
 305:Generated_Source\PSoC4/BLE_1_ans.c ****         locHandleValuePair.value.len = attrSize;
 346              		.loc 1 305 0
 347 0014 8180     		strh	r1, [r0, #4]
 306:Generated_Source\PSoC4/BLE_1_ans.c ****         locHandleValuePair.value.val = attrValue;
 348              		.loc 1 306 0
 349 0016 0192     		str	r2, [sp, #4]
 307:Generated_Source\PSoC4/BLE_1_ans.c ****         
 308:Generated_Source\PSoC4/BLE_1_ans.c ****         /* Store data in database */
 309:Generated_Source\PSoC4/BLE_1_ans.c ****         if(CyBle_GattsWriteAttributeValue(&locHandleValuePair, 0u, NULL, CYBLE_GATT_DB_LOCALLY_INIT
 350              		.loc 1 309 0
 351 0018 0023     		movs	r3, #0
 352 001a 0022     		movs	r2, #0
 353              	.LVL30:
 354 001c 0021     		movs	r1, #0
 355              	.LVL31:
 356 001e FFF7FEFF 		bl	CyBle_GattsWriteAttributeValue
 357              	.LVL32:
 358 0022 0028     		cmp	r0, #0
 359 0024 03D0     		beq	.L25
ARM GAS  C:\Users\chiva\AppData\Local\Temp\ccRS7OOb.s 			page 13


 299:Generated_Source\PSoC4/BLE_1_ans.c ****     CYBLE_GATT_HANDLE_VALUE_PAIR_T locHandleValuePair;
 360              		.loc 1 299 0
 361 0026 0120     		movs	r0, #1
 362 0028 02E0     		b	.L23
 363              	.LVL33:
 364              	.L24:
 365 002a 0120     		movs	r0, #1
 366              	.LVL34:
 367 002c 00E0     		b	.L23
 368              	.LVL35:
 369              	.L25:
 310:Generated_Source\PSoC4/BLE_1_ans.c ****                   == CYBLE_GATT_ERR_NONE)
 311:Generated_Source\PSoC4/BLE_1_ans.c ****         {
 312:Generated_Source\PSoC4/BLE_1_ans.c ****             apiResult = CYBLE_ERROR_OK;
 370              		.loc 1 312 0
 371 002e 0020     		movs	r0, #0
 372              	.L23:
 373              	.LVL36:
 313:Generated_Source\PSoC4/BLE_1_ans.c ****         }
 314:Generated_Source\PSoC4/BLE_1_ans.c ****     }
 315:Generated_Source\PSoC4/BLE_1_ans.c **** 
 316:Generated_Source\PSoC4/BLE_1_ans.c ****     return (apiResult);
 317:Generated_Source\PSoC4/BLE_1_ans.c **** }
 374              		.loc 1 317 0
 375 0030 05B0     		add	sp, sp, #20
 376              		@ sp needed
 377 0032 00BD     		pop	{pc}
 378              	.L27:
 379              		.align	2
 380              	.L26:
 381 0034 00000000 		.word	.LANCHOR1
 382              		.cfi_endproc
 383              	.LFE5:
 384              		.size	CyBle_AnssSetCharacteristicValue, .-CyBle_AnssSetCharacteristicValue
 385              		.section	.text.CyBle_AnssGetCharacteristicValue,"ax",%progbits
 386              		.align	2
 387              		.global	CyBle_AnssGetCharacteristicValue
 388              		.code	16
 389              		.thumb_func
 390              		.type	CyBle_AnssGetCharacteristicValue, %function
 391              	CyBle_AnssGetCharacteristicValue:
 392              	.LFB6:
 318:Generated_Source\PSoC4/BLE_1_ans.c **** 
 319:Generated_Source\PSoC4/BLE_1_ans.c **** 
 320:Generated_Source\PSoC4/BLE_1_ans.c **** /******************************************************************************
 321:Generated_Source\PSoC4/BLE_1_ans.c **** * Function Name: CyBle_AnssGetCharacteristicValue
 322:Generated_Source\PSoC4/BLE_1_ans.c **** ***************************************************************************//**
 323:Generated_Source\PSoC4/BLE_1_ans.c **** * 
 324:Generated_Source\PSoC4/BLE_1_ans.c **** *  Gets a characteristic value of Alert Notification Service. The value is 
 325:Generated_Source\PSoC4/BLE_1_ans.c **** *  identified by charIndex.
 326:Generated_Source\PSoC4/BLE_1_ans.c **** * 
 327:Generated_Source\PSoC4/BLE_1_ans.c **** *  \param charIndex: The index of the service characteristic of type CYBLE_ANS_CHAR_INDEX_T. 
 328:Generated_Source\PSoC4/BLE_1_ans.c **** *              The valid values are,
 329:Generated_Source\PSoC4/BLE_1_ans.c **** *              * CYBLE_ANS_NEW_ALERT
 330:Generated_Source\PSoC4/BLE_1_ans.c **** *              * CYBLE_ANS_UNREAD_ALERT_STATUS
 331:Generated_Source\PSoC4/BLE_1_ans.c **** *  \param attrSize: The size of the characteristic value attribute.
 332:Generated_Source\PSoC4/BLE_1_ans.c **** *  \param attrValue: The pointer to the location where characteristic value data 
ARM GAS  C:\Users\chiva\AppData\Local\Temp\ccRS7OOb.s 			page 14


 333:Generated_Source\PSoC4/BLE_1_ans.c **** *               should be stored.
 334:Generated_Source\PSoC4/BLE_1_ans.c **** * 
 335:Generated_Source\PSoC4/BLE_1_ans.c **** * \return
 336:Generated_Source\PSoC4/BLE_1_ans.c **** *  Return value is of type CYBLE_API_RESULT_T.
 337:Generated_Source\PSoC4/BLE_1_ans.c **** *  * CYBLE_ERROR_OK - The request is handled successfully.
 338:Generated_Source\PSoC4/BLE_1_ans.c **** *  * CYBLE_ERROR_INVALID_PARAMETER - Validation of the input parameter failed.
 339:Generated_Source\PSoC4/BLE_1_ans.c **** *
 340:Generated_Source\PSoC4/BLE_1_ans.c **** ******************************************************************************/
 341:Generated_Source\PSoC4/BLE_1_ans.c **** CYBLE_API_RESULT_T CyBle_AnssGetCharacteristicValue(CYBLE_ANS_CHAR_INDEX_T charIndex,
 342:Generated_Source\PSoC4/BLE_1_ans.c ****     uint8 attrSize, uint8 *attrValue)
 343:Generated_Source\PSoC4/BLE_1_ans.c **** {
 393              		.loc 1 343 0
 394              		.cfi_startproc
 395              		@ args = 0, pretend = 0, frame = 16
 396              		@ frame_needed = 0, uses_anonymous_args = 0
 397              	.LVL37:
 398 0000 00B5     		push	{lr}
 399              		.cfi_def_cfa_offset 4
 400              		.cfi_offset 14, -4
 401 0002 85B0     		sub	sp, sp, #20
 402              		.cfi_def_cfa_offset 24
 403              	.LVL38:
 344:Generated_Source\PSoC4/BLE_1_ans.c ****     CYBLE_API_RESULT_T apiResult = CYBLE_ERROR_INVALID_PARAMETER;
 345:Generated_Source\PSoC4/BLE_1_ans.c ****     CYBLE_GATT_HANDLE_VALUE_PAIR_T locHandleValuePair;
 346:Generated_Source\PSoC4/BLE_1_ans.c **** 
 347:Generated_Source\PSoC4/BLE_1_ans.c ****     if(charIndex < CYBLE_ANS_CHAR_COUNT)
 404              		.loc 1 347 0
 405 0004 0428     		cmp	r0, #4
 406 0006 0FD8     		bhi	.L30
 348:Generated_Source\PSoC4/BLE_1_ans.c ****     {
 349:Generated_Source\PSoC4/BLE_1_ans.c ****         locHandleValuePair.attrHandle = cyBle_anss.charInfo[charIndex].charHandle;
 407              		.loc 1 349 0
 408 0008 8000     		lsls	r0, r0, #2
 409              	.LVL39:
 410 000a 0A4B     		ldr	r3, .L32
 411 000c 1818     		adds	r0, r3, r0
 412 000e 4388     		ldrh	r3, [r0, #2]
 413 0010 01A8     		add	r0, sp, #4
 414 0012 0381     		strh	r3, [r0, #8]
 350:Generated_Source\PSoC4/BLE_1_ans.c ****         locHandleValuePair.value.len = attrSize;
 415              		.loc 1 350 0
 416 0014 8180     		strh	r1, [r0, #4]
 351:Generated_Source\PSoC4/BLE_1_ans.c ****         locHandleValuePair.value.val = attrValue;
 417              		.loc 1 351 0
 418 0016 0192     		str	r2, [sp, #4]
 352:Generated_Source\PSoC4/BLE_1_ans.c ****         
 353:Generated_Source\PSoC4/BLE_1_ans.c ****         /* Read characteristic value from database */
 354:Generated_Source\PSoC4/BLE_1_ans.c ****         if(CyBle_GattsReadAttributeValue(&locHandleValuePair, NULL, CYBLE_GATT_DB_LOCALLY_INITIATED
 419              		.loc 1 354 0
 420 0018 0022     		movs	r2, #0
 421              	.LVL40:
 422 001a 0021     		movs	r1, #0
 423              	.LVL41:
 424 001c FFF7FEFF 		bl	CyBle_GattsReadAttributeValue
 425              	.LVL42:
 426 0020 0028     		cmp	r0, #0
 427 0022 03D0     		beq	.L31
ARM GAS  C:\Users\chiva\AppData\Local\Temp\ccRS7OOb.s 			page 15


 344:Generated_Source\PSoC4/BLE_1_ans.c ****     CYBLE_GATT_HANDLE_VALUE_PAIR_T locHandleValuePair;
 428              		.loc 1 344 0
 429 0024 0120     		movs	r0, #1
 430 0026 02E0     		b	.L29
 431              	.LVL43:
 432              	.L30:
 433 0028 0120     		movs	r0, #1
 434              	.LVL44:
 435 002a 00E0     		b	.L29
 436              	.LVL45:
 437              	.L31:
 355:Generated_Source\PSoC4/BLE_1_ans.c ****                   == CYBLE_GATT_ERR_NONE)
 356:Generated_Source\PSoC4/BLE_1_ans.c ****         {
 357:Generated_Source\PSoC4/BLE_1_ans.c ****             apiResult = CYBLE_ERROR_OK;
 438              		.loc 1 357 0
 439 002c 0020     		movs	r0, #0
 440              	.L29:
 441              	.LVL46:
 358:Generated_Source\PSoC4/BLE_1_ans.c ****         }
 359:Generated_Source\PSoC4/BLE_1_ans.c ****     }
 360:Generated_Source\PSoC4/BLE_1_ans.c ****     
 361:Generated_Source\PSoC4/BLE_1_ans.c ****     return (apiResult);
 362:Generated_Source\PSoC4/BLE_1_ans.c **** }
 442              		.loc 1 362 0
 443 002e 05B0     		add	sp, sp, #20
 444              		@ sp needed
 445 0030 00BD     		pop	{pc}
 446              	.L33:
 447 0032 C046     		.align	2
 448              	.L32:
 449 0034 00000000 		.word	.LANCHOR1
 450              		.cfi_endproc
 451              	.LFE6:
 452              		.size	CyBle_AnssGetCharacteristicValue, .-CyBle_AnssGetCharacteristicValue
 453              		.section	.text.CyBle_AnssGetCharacteristicDescriptor,"ax",%progbits
 454              		.align	2
 455              		.global	CyBle_AnssGetCharacteristicDescriptor
 456              		.code	16
 457              		.thumb_func
 458              		.type	CyBle_AnssGetCharacteristicDescriptor, %function
 459              	CyBle_AnssGetCharacteristicDescriptor:
 460              	.LFB7:
 363:Generated_Source\PSoC4/BLE_1_ans.c **** 
 364:Generated_Source\PSoC4/BLE_1_ans.c **** 
 365:Generated_Source\PSoC4/BLE_1_ans.c **** /******************************************************************************
 366:Generated_Source\PSoC4/BLE_1_ans.c **** * Function Name: CyBle_AnssGetCharacteristicDescriptor
 367:Generated_Source\PSoC4/BLE_1_ans.c **** ***************************************************************************//**
 368:Generated_Source\PSoC4/BLE_1_ans.c **** * 
 369:Generated_Source\PSoC4/BLE_1_ans.c **** *  Gets a characteristic descriptor of the specified characteristic of Alert
 370:Generated_Source\PSoC4/BLE_1_ans.c **** *  Notification Service.
 371:Generated_Source\PSoC4/BLE_1_ans.c **** * 
 372:Generated_Source\PSoC4/BLE_1_ans.c **** *  \param charIndex:  The index of the service characteristic of type CYBLE_ANS_CHAR_INDEX_T.
 373:Generated_Source\PSoC4/BLE_1_ans.c **** *              The valid values are,
 374:Generated_Source\PSoC4/BLE_1_ans.c **** *              * CYBLE_ANS_NEW_ALERT 
 375:Generated_Source\PSoC4/BLE_1_ans.c **** *              * CYBLE_ANS_UNREAD_ALERT_STATUS
 376:Generated_Source\PSoC4/BLE_1_ans.c **** *  \param descrIndex: The index of the service characteristic descriptor of type 
 377:Generated_Source\PSoC4/BLE_1_ans.c **** *              CYBLE_ANS_DESCR_INDEX_T. The valid value is,
ARM GAS  C:\Users\chiva\AppData\Local\Temp\ccRS7OOb.s 			page 16


 378:Generated_Source\PSoC4/BLE_1_ans.c **** *              * CYBLE_ANS_CCCD
 379:Generated_Source\PSoC4/BLE_1_ans.c **** *  \param attrSize:   The size of the characteristic descriptor attribute.
 380:Generated_Source\PSoC4/BLE_1_ans.c **** *  \param attrValue: The pointer to the location where characteristic descriptor value 
 381:Generated_Source\PSoC4/BLE_1_ans.c **** *              data should be stored. 
 382:Generated_Source\PSoC4/BLE_1_ans.c **** * 
 383:Generated_Source\PSoC4/BLE_1_ans.c **** * \return
 384:Generated_Source\PSoC4/BLE_1_ans.c **** *  Return value is of type CYBLE_API_RESULT_T.
 385:Generated_Source\PSoC4/BLE_1_ans.c **** *  * CYBLE_ERROR_OK - The request is handled successfully.
 386:Generated_Source\PSoC4/BLE_1_ans.c **** *  * CYBLE_ERROR_INVALID_PARAMETER - Validation of the input parameter failed.
 387:Generated_Source\PSoC4/BLE_1_ans.c **** *
 388:Generated_Source\PSoC4/BLE_1_ans.c **** ******************************************************************************/
 389:Generated_Source\PSoC4/BLE_1_ans.c **** CYBLE_API_RESULT_T CyBle_AnssGetCharacteristicDescriptor(CYBLE_ANS_CHAR_INDEX_T charIndex,
 390:Generated_Source\PSoC4/BLE_1_ans.c ****     CYBLE_ANS_DESCR_INDEX_T descrIndex, uint8 attrSize, uint8 *attrValue)
 391:Generated_Source\PSoC4/BLE_1_ans.c **** {
 461              		.loc 1 391 0
 462              		.cfi_startproc
 463              		@ args = 0, pretend = 0, frame = 16
 464              		@ frame_needed = 0, uses_anonymous_args = 0
 465              	.LVL47:
 466 0000 00B5     		push	{lr}
 467              		.cfi_def_cfa_offset 4
 468              		.cfi_offset 14, -4
 469 0002 85B0     		sub	sp, sp, #20
 470              		.cfi_def_cfa_offset 24
 471              	.LVL48:
 392:Generated_Source\PSoC4/BLE_1_ans.c ****     CYBLE_API_RESULT_T apiResult = CYBLE_ERROR_INVALID_PARAMETER;
 393:Generated_Source\PSoC4/BLE_1_ans.c ****     CYBLE_GATT_HANDLE_VALUE_PAIR_T locHandleValuePair;
 394:Generated_Source\PSoC4/BLE_1_ans.c **** 
 395:Generated_Source\PSoC4/BLE_1_ans.c ****     if(((charIndex == CYBLE_ANS_NEW_ALERT) || (charIndex == CYBLE_ANS_UNREAD_ALERT_STATUS)) && 
 472              		.loc 1 395 0
 473 0004 0128     		cmp	r0, #1
 474 0006 01D0     		beq	.L35
 475              		.loc 1 395 0 is_stmt 0 discriminator 2
 476 0008 0328     		cmp	r0, #3
 477 000a 15D1     		bne	.L37
 478              	.L35:
 479              		.loc 1 395 0 discriminator 3
 480 000c 0029     		cmp	r1, #0
 481 000e 15D1     		bne	.L38
 396:Generated_Source\PSoC4/BLE_1_ans.c ****         (descrIndex == CYBLE_ANS_CCCD))
 397:Generated_Source\PSoC4/BLE_1_ans.c ****     {
 398:Generated_Source\PSoC4/BLE_1_ans.c ****         if(cyBle_anss.charInfo[charIndex].descrHandle[descrIndex] != CYBLE_GATT_INVALID_ATTR_HANDLE
 482              		.loc 1 398 0 is_stmt 1
 483 0010 4000     		lsls	r0, r0, #1
 484              	.LVL49:
 485 0012 4118     		adds	r1, r0, r1
 486              	.LVL50:
 487 0014 4900     		lsls	r1, r1, #1
 488 0016 0D48     		ldr	r0, .L41
 489 0018 4118     		adds	r1, r0, r1
 490 001a 8988     		ldrh	r1, [r1, #4]
 491 001c 0029     		cmp	r1, #0
 492 001e 0FD0     		beq	.L39
 399:Generated_Source\PSoC4/BLE_1_ans.c ****         {
 400:Generated_Source\PSoC4/BLE_1_ans.c ****             locHandleValuePair.attrHandle = cyBle_anss.charInfo[charIndex].descrHandle[descrIndex];
 493              		.loc 1 400 0
 494 0020 01A8     		add	r0, sp, #4
ARM GAS  C:\Users\chiva\AppData\Local\Temp\ccRS7OOb.s 			page 17


 495 0022 0181     		strh	r1, [r0, #8]
 401:Generated_Source\PSoC4/BLE_1_ans.c **** 			locHandleValuePair.value.len = attrSize;
 496              		.loc 1 401 0
 497 0024 8280     		strh	r2, [r0, #4]
 402:Generated_Source\PSoC4/BLE_1_ans.c ****             locHandleValuePair.value.val = attrValue;
 498              		.loc 1 402 0
 499 0026 0193     		str	r3, [sp, #4]
 403:Generated_Source\PSoC4/BLE_1_ans.c **** 
 404:Generated_Source\PSoC4/BLE_1_ans.c ****             if(CyBle_GattsReadAttributeValue(&locHandleValuePair,0u, CYBLE_GATT_DB_LOCALLY_INITIATE
 500              		.loc 1 404 0
 501 0028 0022     		movs	r2, #0
 502              	.LVL51:
 503 002a 0021     		movs	r1, #0
 504 002c FFF7FEFF 		bl	CyBle_GattsReadAttributeValue
 505              	.LVL52:
 506 0030 0028     		cmp	r0, #0
 507 0032 07D0     		beq	.L40
 392:Generated_Source\PSoC4/BLE_1_ans.c ****     CYBLE_GATT_HANDLE_VALUE_PAIR_T locHandleValuePair;
 508              		.loc 1 392 0
 509 0034 0120     		movs	r0, #1
 510 0036 06E0     		b	.L36
 511              	.LVL53:
 512              	.L37:
 513 0038 0120     		movs	r0, #1
 514              	.LVL54:
 515 003a 04E0     		b	.L36
 516              	.LVL55:
 517              	.L38:
 518 003c 0120     		movs	r0, #1
 519              	.LVL56:
 520 003e 02E0     		b	.L36
 521              	.LVL57:
 522              	.L39:
 523 0040 0120     		movs	r0, #1
 524 0042 00E0     		b	.L36
 525              	.LVL58:
 526              	.L40:
 405:Generated_Source\PSoC4/BLE_1_ans.c ****                      == CYBLE_GATT_ERR_NONE)
 406:Generated_Source\PSoC4/BLE_1_ans.c ****             {
 407:Generated_Source\PSoC4/BLE_1_ans.c ****                 apiResult = CYBLE_ERROR_OK;
 527              		.loc 1 407 0
 528 0044 0020     		movs	r0, #0
 529              	.L36:
 530              	.LVL59:
 408:Generated_Source\PSoC4/BLE_1_ans.c ****             }
 409:Generated_Source\PSoC4/BLE_1_ans.c ****         }
 410:Generated_Source\PSoC4/BLE_1_ans.c ****     }
 411:Generated_Source\PSoC4/BLE_1_ans.c ****     
 412:Generated_Source\PSoC4/BLE_1_ans.c ****     return (apiResult);
 413:Generated_Source\PSoC4/BLE_1_ans.c **** }
 531              		.loc 1 413 0
 532 0046 05B0     		add	sp, sp, #20
 533              		@ sp needed
 534 0048 00BD     		pop	{pc}
 535              	.L42:
 536 004a C046     		.align	2
 537              	.L41:
ARM GAS  C:\Users\chiva\AppData\Local\Temp\ccRS7OOb.s 			page 18


 538 004c 00000000 		.word	.LANCHOR1
 539              		.cfi_endproc
 540              	.LFE7:
 541              		.size	CyBle_AnssGetCharacteristicDescriptor, .-CyBle_AnssGetCharacteristicDescriptor
 542              		.section	.text.CyBle_AnssSendNotification,"ax",%progbits
 543              		.align	2
 544              		.global	CyBle_AnssSendNotification
 545              		.code	16
 546              		.thumb_func
 547              		.type	CyBle_AnssSendNotification, %function
 548              	CyBle_AnssSendNotification:
 549              	.LFB8:
 414:Generated_Source\PSoC4/BLE_1_ans.c **** 
 415:Generated_Source\PSoC4/BLE_1_ans.c **** 
 416:Generated_Source\PSoC4/BLE_1_ans.c **** /******************************************************************************
 417:Generated_Source\PSoC4/BLE_1_ans.c **** * Function Name: CyBle_AnssSendNotification
 418:Generated_Source\PSoC4/BLE_1_ans.c **** ***************************************************************************//**
 419:Generated_Source\PSoC4/BLE_1_ans.c **** * 
 420:Generated_Source\PSoC4/BLE_1_ans.c **** *  Sends a notification with the characteristic value, as specified by its  
 421:Generated_Source\PSoC4/BLE_1_ans.c **** *  charIndex, to the Client device.
 422:Generated_Source\PSoC4/BLE_1_ans.c **** *
 423:Generated_Source\PSoC4/BLE_1_ans.c **** *  On enabling notification successfully for a service characteristic it sends 
 424:Generated_Source\PSoC4/BLE_1_ans.c **** *  out a 'Handle Value Notification' which results in 
 425:Generated_Source\PSoC4/BLE_1_ans.c **** *  CYBLE_EVT_ANSC_NOTIFICATION event at the GATT Client's end.
 426:Generated_Source\PSoC4/BLE_1_ans.c **** * 
 427:Generated_Source\PSoC4/BLE_1_ans.c **** *  \param connHandle: The connection handle.
 428:Generated_Source\PSoC4/BLE_1_ans.c **** *  \param charIndex:  The index of the service characteristic of type
 429:Generated_Source\PSoC4/BLE_1_ans.c **** *                     CYBLE_ANS_CHAR_INDEX_T. The valid values are, 
 430:Generated_Source\PSoC4/BLE_1_ans.c **** *                         * CYBLE_ANS_UNREAD_ALERT_STATUS;
 431:Generated_Source\PSoC4/BLE_1_ans.c **** *                         * CYBLE_ANS_NEW_ALERT.
 432:Generated_Source\PSoC4/BLE_1_ans.c **** *  \param attrSize:   The size of the characteristic value attribute.
 433:Generated_Source\PSoC4/BLE_1_ans.c **** *  \param attrValue:  The pointer to the characteristic value data that should
 434:Generated_Source\PSoC4/BLE_1_ans.c **** *                     be sent to the Client device.
 435:Generated_Source\PSoC4/BLE_1_ans.c **** * 
 436:Generated_Source\PSoC4/BLE_1_ans.c **** * \return
 437:Generated_Source\PSoC4/BLE_1_ans.c **** *  Return value is of type CYBLE_API_RESULT_T.
 438:Generated_Source\PSoC4/BLE_1_ans.c **** *   * CYBLE_ERROR_OK - The function completed successfully.
 439:Generated_Source\PSoC4/BLE_1_ans.c **** *   * CYBLE_ERROR_INVALID_PARAMETER - Validation of input parameter is failed.
 440:Generated_Source\PSoC4/BLE_1_ans.c **** *   * CYBLE_ERROR_INVALID_OPERATION - Operation is invalid for this.
 441:Generated_Source\PSoC4/BLE_1_ans.c **** *                                     characteristic.
 442:Generated_Source\PSoC4/BLE_1_ans.c **** *   * CYBLE_ERROR_INVALID_STATE - Connection with the client is not established.
 443:Generated_Source\PSoC4/BLE_1_ans.c **** *   * CYBLE_ERROR_MEMORY_ALLOCATION_FAILED - Memory allocation failed.
 444:Generated_Source\PSoC4/BLE_1_ans.c **** *   * CYBLE_ERROR_NTF_DISABLED - Notification is not enabled by the client.
 445:Generated_Source\PSoC4/BLE_1_ans.c **** *
 446:Generated_Source\PSoC4/BLE_1_ans.c **** ******************************************************************************/
 447:Generated_Source\PSoC4/BLE_1_ans.c **** CYBLE_API_RESULT_T CyBle_AnssSendNotification(CYBLE_CONN_HANDLE_T connHandle,
 448:Generated_Source\PSoC4/BLE_1_ans.c ****     CYBLE_ANS_CHAR_INDEX_T charIndex, uint8 attrSize, uint8 *attrValue)
 449:Generated_Source\PSoC4/BLE_1_ans.c **** {
 550              		.loc 1 449 0
 551              		.cfi_startproc
 552              		@ args = 0, pretend = 0, frame = 24
 553              		@ frame_needed = 0, uses_anonymous_args = 0
 554              	.LVL60:
 555 0000 70B5     		push	{r4, r5, r6, lr}
 556              		.cfi_def_cfa_offset 16
 557              		.cfi_offset 4, -16
 558              		.cfi_offset 5, -12
ARM GAS  C:\Users\chiva\AppData\Local\Temp\ccRS7OOb.s 			page 19


 559              		.cfi_offset 6, -8
 560              		.cfi_offset 14, -4
 561 0002 86B0     		sub	sp, sp, #24
 562              		.cfi_def_cfa_offset 40
 563 0004 01AC     		add	r4, sp, #4
 564 0006 2080     		strh	r0, [r4]
 565 0008 0C00     		movs	r4, r1
 566 000a 1500     		movs	r5, r2
 567 000c 1E00     		movs	r6, r3
 568              	.LVL61:
 450:Generated_Source\PSoC4/BLE_1_ans.c ****     CYBLE_API_RESULT_T apiResult = CYBLE_ERROR_INVALID_PARAMETER;
 451:Generated_Source\PSoC4/BLE_1_ans.c ****     
 452:Generated_Source\PSoC4/BLE_1_ans.c ****     if((charIndex == CYBLE_ANS_NEW_ALERT) || (charIndex == CYBLE_ANS_UNREAD_ALERT_STATUS))
 569              		.loc 1 452 0
 570 000e 0129     		cmp	r1, #1
 571 0010 01D0     		beq	.L44
 572              		.loc 1 452 0 is_stmt 0 discriminator 1
 573 0012 0329     		cmp	r1, #3
 574 0014 1FD1     		bne	.L46
 575              	.L44:
 453:Generated_Source\PSoC4/BLE_1_ans.c ****     {
 454:Generated_Source\PSoC4/BLE_1_ans.c ****         /* Send Notification if it is enabled and connected */
 455:Generated_Source\PSoC4/BLE_1_ans.c ****         if(CYBLE_STATE_CONNECTED != CyBle_GetState())
 576              		.loc 1 455 0 is_stmt 1
 577 0016 144B     		ldr	r3, .L49
 578              	.LVL62:
 579 0018 1B78     		ldrb	r3, [r3]
 580 001a 022B     		cmp	r3, #2
 581 001c 1DD1     		bne	.L47
 456:Generated_Source\PSoC4/BLE_1_ans.c ****         {
 457:Generated_Source\PSoC4/BLE_1_ans.c ****             apiResult = CYBLE_ERROR_INVALID_STATE;
 458:Generated_Source\PSoC4/BLE_1_ans.c ****         }
 459:Generated_Source\PSoC4/BLE_1_ans.c ****         else if(!CYBLE_IS_NOTIFICATION_ENABLED(cyBle_anss.charInfo[charIndex].descrHandle[CYBLE_ANS
 582              		.loc 1 459 0
 583 001e A300     		lsls	r3, r4, #2
 584 0020 124A     		ldr	r2, .L49+4
 585              	.LVL63:
 586 0022 D318     		adds	r3, r2, r3
 587 0024 9B88     		ldrh	r3, [r3, #4]
 588 0026 013B     		subs	r3, r3, #1
 589 0028 9A00     		lsls	r2, r3, #2
 590 002a D318     		adds	r3, r2, r3
 591 002c 9A00     		lsls	r2, r3, #2
 592 002e 104B     		ldr	r3, .L49+8
 593 0030 9A18     		adds	r2, r3, r2
 594 0032 1369     		ldr	r3, [r2, #16]
 595 0034 5868     		ldr	r0, [r3, #4]
 596 0036 FFF7FEFF 		bl	CyBle_Get16ByPtr
 597              	.LVL64:
 598 003a C307     		lsls	r3, r0, #31
 599 003c 10D5     		bpl	.L48
 600              	.LBB2:
 460:Generated_Source\PSoC4/BLE_1_ans.c ****         {
 461:Generated_Source\PSoC4/BLE_1_ans.c ****             apiResult = CYBLE_ERROR_NTF_DISABLED;
 462:Generated_Source\PSoC4/BLE_1_ans.c ****         }
 463:Generated_Source\PSoC4/BLE_1_ans.c ****         else
 464:Generated_Source\PSoC4/BLE_1_ans.c ****         {
ARM GAS  C:\Users\chiva\AppData\Local\Temp\ccRS7OOb.s 			page 20


 465:Generated_Source\PSoC4/BLE_1_ans.c ****             CYBLE_GATTS_HANDLE_VALUE_NTF_T ntfReqParam;
 466:Generated_Source\PSoC4/BLE_1_ans.c ****             
 467:Generated_Source\PSoC4/BLE_1_ans.c ****             /* Fill all fields of write request structure ... */
 468:Generated_Source\PSoC4/BLE_1_ans.c ****             ntfReqParam.attrHandle = cyBle_anss.charInfo[charIndex].charHandle;
 601              		.loc 1 468 0
 602 003e A400     		lsls	r4, r4, #2
 603 0040 0A4B     		ldr	r3, .L49+4
 604 0042 1C19     		adds	r4, r3, r4
 605 0044 6388     		ldrh	r3, [r4, #2]
 606 0046 03A9     		add	r1, sp, #12
 607 0048 0B81     		strh	r3, [r1, #8]
 469:Generated_Source\PSoC4/BLE_1_ans.c ****             ntfReqParam.value.val = attrValue;
 608              		.loc 1 469 0
 609 004a 0396     		str	r6, [sp, #12]
 470:Generated_Source\PSoC4/BLE_1_ans.c ****             ntfReqParam.value.len = attrSize;
 610              		.loc 1 470 0
 611 004c 8D80     		strh	r5, [r1, #4]
 471:Generated_Source\PSoC4/BLE_1_ans.c ****             
 472:Generated_Source\PSoC4/BLE_1_ans.c ****             /* Send notification to client using previously filled structure */
 473:Generated_Source\PSoC4/BLE_1_ans.c ****             apiResult = CyBle_GattsNotification(connHandle, &ntfReqParam);
 612              		.loc 1 473 0
 613 004e 0198     		ldr	r0, [sp, #4]
 614 0050 FFF7FEFF 		bl	CyBle_GattsNotification
 615              	.LVL65:
 616 0054 06E0     		b	.L45
 617              	.LVL66:
 618              	.L46:
 619              	.LBE2:
 450:Generated_Source\PSoC4/BLE_1_ans.c ****     
 620              		.loc 1 450 0
 621 0056 0120     		movs	r0, #1
 622 0058 04E0     		b	.L45
 623              	.LVL67:
 624              	.L47:
 457:Generated_Source\PSoC4/BLE_1_ans.c ****         }
 625              		.loc 1 457 0
 626 005a 0420     		movs	r0, #4
 627 005c FF30     		adds	r0, r0, #255
 628 005e 01E0     		b	.L45
 629              	.LVL68:
 630              	.L48:
 461:Generated_Source\PSoC4/BLE_1_ans.c ****         }
 631              		.loc 1 461 0
 632 0060 8020     		movs	r0, #128
 633 0062 4000     		lsls	r0, r0, #1
 634              	.LVL69:
 635              	.L45:
 474:Generated_Source\PSoC4/BLE_1_ans.c ****         }
 475:Generated_Source\PSoC4/BLE_1_ans.c ****     }
 476:Generated_Source\PSoC4/BLE_1_ans.c ****     return (apiResult);
 477:Generated_Source\PSoC4/BLE_1_ans.c **** }
 636              		.loc 1 477 0
 637 0064 06B0     		add	sp, sp, #24
 638              		@ sp needed
 639              	.LVL70:
 640 0066 70BD     		pop	{r4, r5, r6, pc}
 641              	.L50:
ARM GAS  C:\Users\chiva\AppData\Local\Temp\ccRS7OOb.s 			page 21


 642              		.align	2
 643              	.L49:
 644 0068 00000000 		.word	cyBle_state
 645 006c 00000000 		.word	.LANCHOR1
 646 0070 00000000 		.word	cyBle_gattDB
 647              		.cfi_endproc
 648              	.LFE8:
 649              		.size	CyBle_AnssSendNotification, .-CyBle_AnssSendNotification
 650              		.global	cyBle_anss
 651              		.section	.rodata
 652              		.align	2
 653              		.set	.LANCHOR1,. + 0
 654              		.type	cyBle_anss, %object
 655              		.size	cyBle_anss, 22
 656              	cyBle_anss:
 657 0000 1000     		.short	16
 658 0002 1200     		.short	18
 659 0004 0000     		.short	0
 660 0006 1400     		.short	20
 661 0008 1500     		.short	21
 662 000a 1700     		.short	23
 663 000c 0000     		.short	0
 664 000e 1900     		.short	25
 665 0010 1A00     		.short	26
 666 0012 1C00     		.short	28
 667 0014 0000     		.short	0
 668              		.bss
 669              		.align	2
 670              		.set	.LANCHOR0,. + 0
 671              		.type	CyBle_AnsApplCallback, %object
 672              		.size	CyBle_AnsApplCallback, 4
 673              	CyBle_AnsApplCallback:
 674 0000 00000000 		.space	4
 675              		.text
 676              	.Letext0:
 677              		.file 2 "Generated_Source\\PSoC4\\cytypes.h"
 678              		.file 3 "Generated_Source\\PSoC4\\BLE_1_Stack.h"
 679              		.file 4 "Generated_Source\\PSoC4\\BLE_1_StackGatt.h"
 680              		.file 5 "Generated_Source\\PSoC4\\BLE_1_StackGattServer.h"
 681              		.file 6 "Generated_Source\\PSoC4\\BLE_1_StackGattDb.h"
 682              		.file 7 "Generated_Source\\PSoC4\\BLE_1.h"
 683              		.file 8 "Generated_Source\\PSoC4\\BLE_1_ans.h"
 684              		.file 9 "Generated_Source\\PSoC4\\BLE_1_eventHandler.h"
 685              		.file 10 "Generated_Source\\PSoC4\\BLE_1_gatt.h"