ARM GAS  C:\Users\ELIASG~1\AppData\Local\Temp\ccTTQmdB.s 			page 1


   1              		.syntax unified
   2              		.cpu cortex-m0
   3              		.fpu softvfp
   4              		.eabi_attribute 20, 1
   5              		.eabi_attribute 21, 1
   6              		.eabi_attribute 23, 3
   7              		.eabi_attribute 24, 1
   8              		.eabi_attribute 25, 1
   9              		.eabi_attribute 26, 1
  10              		.eabi_attribute 30, 1
  11              		.eabi_attribute 34, 0
  12              		.eabi_attribute 18, 4
  13              		.thumb
  14              		.syntax unified
  15              		.file	"i2c_lcd.c"
  16              		.text
  17              	.Ltext0:
  18              		.cfi_sections	.debug_frame
  19              		.section	.text.i2c_send,"ax",%progbits
  20              		.align	2
  21              		.global	i2c_send
  22              		.code	16
  23              		.thumb_func
  24              		.type	i2c_send, %function
  25              	i2c_send:
  26              	.LFB0:
  27              		.file 1 "i2c_lcd.c"
   1:i2c_lcd.c     **** #include "i2c_lcd.h"
   2:i2c_lcd.c     **** 
   3:i2c_lcd.c     **** static unsigned int ohm;
   4:i2c_lcd.c     **** static unsigned int pt;
   5:i2c_lcd.c     **** unsigned char rti_flag = 0;
   6:i2c_lcd.c     **** unsigned char wr_dir = 0x4E;
   7:i2c_lcd.c     **** unsigned char state;
   8:i2c_lcd.c     **** unsigned char bit4_mode = 0;
   9:i2c_lcd.c     **** unsigned char dir;
  10:i2c_lcd.c     **** unsigned char tmp_bf;
  11:i2c_lcd.c     **** 
  12:i2c_lcd.c     **** void i2c_send(unsigned char data) {
  28              		.loc 1 12 0
  29              		.cfi_startproc
  30              		@ args = 0, pretend = 0, frame = 0
  31              		@ frame_needed = 0, uses_anonymous_args = 0
  32              	.LVL0:
  33 0000 10B5     		push	{r4, lr}
  34              		.cfi_def_cfa_offset 8
  35              		.cfi_offset 4, -8
  36              		.cfi_offset 14, -4
  37 0002 0400     		movs	r4, r0
  13:i2c_lcd.c     **** 	I2CP_I2CMasterSendStart(0x27, 0x00);
  38              		.loc 1 13 0
  39 0004 0021     		movs	r1, #0
  40 0006 2720     		movs	r0, #39
  41              	.LVL1:
  42 0008 FFF7FEFF 		bl	I2CP_I2CMasterSendStart
  43              	.LVL2:
  14:i2c_lcd.c     **** 	I2CP_I2CMasterWriteByte(data);
ARM GAS  C:\Users\ELIASG~1\AppData\Local\Temp\ccTTQmdB.s 			page 2


  44              		.loc 1 14 0
  45 000c 2000     		movs	r0, r4
  46 000e FFF7FEFF 		bl	I2CP_I2CMasterWriteByte
  47              	.LVL3:
  15:i2c_lcd.c     **** 	rti_flag = 0;
  48              		.loc 1 15 0
  49 0012 0022     		movs	r2, #0
  50 0014 014B     		ldr	r3, .L2
  51 0016 1A70     		strb	r2, [r3]
  16:i2c_lcd.c     **** }
  52              		.loc 1 16 0
  53              		@ sp needed
  54 0018 10BD     		pop	{r4, pc}
  55              	.L3:
  56 001a C046     		.align	2
  57              	.L2:
  58 001c 00000000 		.word	.LANCHOR0
  59              		.cfi_endproc
  60              	.LFE0:
  61              		.size	i2c_send, .-i2c_send
  62              		.section	.text.i2c_idle,"ax",%progbits
  63              		.align	2
  64              		.global	i2c_idle
  65              		.code	16
  66              		.thumb_func
  67              		.type	i2c_idle, %function
  68              	i2c_idle:
  69              	.LFB1:
  17:i2c_lcd.c     **** 
  18:i2c_lcd.c     **** void i2c_idle(void) {
  70              		.loc 1 18 0
  71              		.cfi_startproc
  72              		@ args = 0, pretend = 0, frame = 0
  73              		@ frame_needed = 0, uses_anonymous_args = 0
  74 0000 10B5     		push	{r4, lr}
  75              		.cfi_def_cfa_offset 8
  76              		.cfi_offset 4, -8
  77              		.cfi_offset 14, -4
  19:i2c_lcd.c     **** 	I2CP_I2CMasterSendStop();
  78              		.loc 1 19 0
  79 0002 FFF7FEFF 		bl	I2CP_I2CMasterSendStop
  80              	.LVL4:
  20:i2c_lcd.c     **** }
  81              		.loc 1 20 0
  82              		@ sp needed
  83 0006 10BD     		pop	{r4, pc}
  84              		.cfi_endproc
  85              	.LFE1:
  86              		.size	i2c_idle, .-i2c_idle
  87              		.section	.text.delay_ms,"ax",%progbits
  88              		.align	2
  89              		.global	delay_ms
  90              		.code	16
  91              		.thumb_func
  92              		.type	delay_ms, %function
  93              	delay_ms:
  94              	.LFB13:
ARM GAS  C:\Users\ELIASG~1\AppData\Local\Temp\ccTTQmdB.s 			page 3


  21:i2c_lcd.c     **** 
  22:i2c_lcd.c     **** void I2C_LCD_Init(unsigned char address) {
  23:i2c_lcd.c     **** 	dir = address << 1;
  24:i2c_lcd.c     **** 	i2c_send(0x08);
  25:i2c_lcd.c     **** 	state = 0x08;
  26:i2c_lcd.c     **** 	i2c_idle();
  27:i2c_lcd.c     **** 	CyDelay(20);
  28:i2c_lcd.c     **** 	lcd_write_uchar(0b00110000, 0);
  29:i2c_lcd.c     **** 	CyDelay(5);
  30:i2c_lcd.c     **** 	lcd_write_uchar(0b00110000, 0);
  31:i2c_lcd.c     **** 	CyDelay(1);
  32:i2c_lcd.c     **** 	lcd_write_uchar(0b00110000, 0);
  33:i2c_lcd.c     **** 	lcd_4_bit();
  34:i2c_lcd.c     **** 	lcd_cursor_inc();
  35:i2c_lcd.c     **** 	lcd_cursor_on();
  36:i2c_lcd.c     **** 	lcd_clear();
  37:i2c_lcd.c     **** }
  38:i2c_lcd.c     **** 
  39:i2c_lcd.c     **** void lcd_clear(void) {
  40:i2c_lcd.c     **** 	lcd_write_uchar(0b00000001, 0);
  41:i2c_lcd.c     **** }
  42:i2c_lcd.c     **** 
  43:i2c_lcd.c     **** void lcd_4_bit(void) {
  44:i2c_lcd.c     **** 	lcd_write_uchar(0b00101000, 0);
  45:i2c_lcd.c     **** 	bit4_mode = 1;
  46:i2c_lcd.c     **** }
  47:i2c_lcd.c     **** 
  48:i2c_lcd.c     **** void lcd_cursor_inc(void) {
  49:i2c_lcd.c     **** 	lcd_write_uchar(0b00000110, 0);
  50:i2c_lcd.c     **** }
  51:i2c_lcd.c     **** 
  52:i2c_lcd.c     **** void lcd_line0(unsigned char posicion) {
  53:i2c_lcd.c     **** 	lcd_write_uchar(0b10000000 + posicion, 0);
  54:i2c_lcd.c     **** }
  55:i2c_lcd.c     **** 
  56:i2c_lcd.c     **** void lcd_line1_pos(unsigned char posicion) {
  57:i2c_lcd.c     **** 	lcd_write_uchar_pos(0b10000000 + posicion, 0);
  58:i2c_lcd.c     **** }
  59:i2c_lcd.c     **** 
  60:i2c_lcd.c     **** void lcd_line1(unsigned char posicion) {
  61:i2c_lcd.c     **** 	lcd_write_uchar(0b11000000 + posicion, 0);
  62:i2c_lcd.c     **** }
  63:i2c_lcd.c     **** 
  64:i2c_lcd.c     **** void lcd_line2_pos(unsigned char posicion) {
  65:i2c_lcd.c     **** 	lcd_write_uchar_pos(0b11000000 + posicion, 0);
  66:i2c_lcd.c     **** }
  67:i2c_lcd.c     **** 
  68:i2c_lcd.c     **** void lcd_cursor_on(void) {
  69:i2c_lcd.c     **** 	lcd_write_uchar(0b00001110, 0);
  70:i2c_lcd.c     **** }
  71:i2c_lcd.c     **** 
  72:i2c_lcd.c     **** void lcd_write_char(unsigned char character) {
  73:i2c_lcd.c     **** 	lcd_write_uchar(character, 1);
  74:i2c_lcd.c     **** }
  75:i2c_lcd.c     **** 
  76:i2c_lcd.c     **** void lcd_write_int(unsigned char character) {
  77:i2c_lcd.c     **** 	lcd_write_uchar_pos(character, 1);
ARM GAS  C:\Users\ELIASG~1\AppData\Local\Temp\ccTTQmdB.s 			page 4


  78:i2c_lcd.c     **** }
  79:i2c_lcd.c     **** 
  80:i2c_lcd.c     **** 
  81:i2c_lcd.c     **** void delay_ms(unsigned int delay) {
  95              		.loc 1 81 0
  96              		.cfi_startproc
  97              		@ args = 0, pretend = 0, frame = 0
  98              		@ frame_needed = 0, uses_anonymous_args = 0
  99              		@ link register save eliminated.
 100              	.LVL5:
  82:i2c_lcd.c     **** 	unsigned int contador;
  83:i2c_lcd.c     **** 	delay = (int) (delay * 4000);
 101              		.loc 1 83 0
 102 0000 FA23     		movs	r3, #250
 103 0002 1B01     		lsls	r3, r3, #4
 104 0004 5843     		muls	r0, r3
 105              	.LVL6:
  84:i2c_lcd.c     **** 	for (contador = 0; contador < delay; contador++)
 106              		.loc 1 84 0
 107 0006 0023     		movs	r3, #0
 108 0008 01E0     		b	.L6
 109              	.LVL7:
 110              	.L7:
  85:i2c_lcd.c     **** 		asm ("nop");
 111              		.loc 1 85 0 discriminator 3
 112              		.syntax divided
 113              	@ 85 "i2c_lcd.c" 1
 114 000a C046     		nop
 115              	@ 0 "" 2
  84:i2c_lcd.c     **** 	for (contador = 0; contador < delay; contador++)
 116              		.loc 1 84 0 discriminator 3
 117              		.thumb
 118              		.syntax unified
 119 000c 0133     		adds	r3, r3, #1
 120              	.LVL8:
 121              	.L6:
  84:i2c_lcd.c     **** 	for (contador = 0; contador < delay; contador++)
 122              		.loc 1 84 0 is_stmt 0 discriminator 1
 123 000e 8342     		cmp	r3, r0
 124 0010 FBD3     		bcc	.L7
  86:i2c_lcd.c     **** }
 125              		.loc 1 86 0 is_stmt 1
 126              		@ sp needed
 127 0012 7047     		bx	lr
 128              		.cfi_endproc
 129              	.LFE13:
 130              		.size	delay_ms, .-delay_ms
 131              		.section	.text.delay_us,"ax",%progbits
 132              		.align	2
 133              		.global	delay_us
 134              		.code	16
 135              		.thumb_func
 136              		.type	delay_us, %function
 137              	delay_us:
 138              	.LFB14:
  87:i2c_lcd.c     **** 
  88:i2c_lcd.c     **** void delay_us(unsigned int delay) {
ARM GAS  C:\Users\ELIASG~1\AppData\Local\Temp\ccTTQmdB.s 			page 5


 139              		.loc 1 88 0
 140              		.cfi_startproc
 141              		@ args = 0, pretend = 0, frame = 0
 142              		@ frame_needed = 0, uses_anonymous_args = 0
 143              		@ link register save eliminated.
 144              	.LVL9:
  89:i2c_lcd.c     **** 	unsigned int contador;
  90:i2c_lcd.c     **** 	delay = (int) (delay * 4);
 145              		.loc 1 90 0
 146 0000 8000     		lsls	r0, r0, #2
 147              	.LVL10:
  91:i2c_lcd.c     **** 	for (contador = 0; contador < delay; contador++)
 148              		.loc 1 91 0
 149 0002 0023     		movs	r3, #0
 150 0004 01E0     		b	.L9
 151              	.LVL11:
 152              	.L10:
  92:i2c_lcd.c     **** 		asm ("nop");
 153              		.loc 1 92 0 discriminator 3
 154              		.syntax divided
 155              	@ 92 "i2c_lcd.c" 1
 156 0006 C046     		nop
 157              	@ 0 "" 2
  91:i2c_lcd.c     **** 	for (contador = 0; contador < delay; contador++)
 158              		.loc 1 91 0 discriminator 3
 159              		.thumb
 160              		.syntax unified
 161 0008 0133     		adds	r3, r3, #1
 162              	.LVL12:
 163              	.L9:
  91:i2c_lcd.c     **** 	for (contador = 0; contador < delay; contador++)
 164              		.loc 1 91 0 is_stmt 0 discriminator 1
 165 000a 8342     		cmp	r3, r0
 166 000c FBD3     		bcc	.L10
  93:i2c_lcd.c     **** }
 167              		.loc 1 93 0 is_stmt 1
 168              		@ sp needed
 169 000e 7047     		bx	lr
 170              		.cfi_endproc
 171              	.LFE14:
 172              		.size	delay_us, .-delay_us
 173              		.section	.text.delay_micro,"ax",%progbits
 174              		.align	2
 175              		.global	delay_micro
 176              		.code	16
 177              		.thumb_func
 178              		.type	delay_micro, %function
 179              	delay_micro:
 180              	.LFB15:
  94:i2c_lcd.c     **** 
  95:i2c_lcd.c     **** void delay_micro(unsigned int delay) {
 181              		.loc 1 95 0
 182              		.cfi_startproc
 183              		@ args = 0, pretend = 0, frame = 0
 184              		@ frame_needed = 0, uses_anonymous_args = 0
 185              		@ link register save eliminated.
 186              	.LVL13:
ARM GAS  C:\Users\ELIASG~1\AppData\Local\Temp\ccTTQmdB.s 			page 6


  96:i2c_lcd.c     **** 	delay = (int) (delay / 4);
 187              		.loc 1 96 0
 188 0000 8008     		lsrs	r0, r0, #2
 189              	.LVL14:
  97:i2c_lcd.c     **** 	if (pt < delay)
 190              		.loc 1 97 0
 191 0002 064B     		ldr	r3, .L14
 192 0004 5B68     		ldr	r3, [r3, #4]
 193 0006 9842     		cmp	r0, r3
 194 0008 03D9     		bls	.L12
  98:i2c_lcd.c     **** 		pt++;
 195              		.loc 1 98 0
 196 000a 0133     		adds	r3, r3, #1
 197 000c 034A     		ldr	r2, .L14
 198 000e 5360     		str	r3, [r2, #4]
 199 0010 02E0     		b	.L11
 200              	.L12:
  99:i2c_lcd.c     **** 	else
 100:i2c_lcd.c     **** 		pt = 0;
 201              		.loc 1 100 0
 202 0012 0022     		movs	r2, #0
 203 0014 014B     		ldr	r3, .L14
 204 0016 5A60     		str	r2, [r3, #4]
 205              	.L11:
 101:i2c_lcd.c     **** }
 206              		.loc 1 101 0
 207              		@ sp needed
 208 0018 7047     		bx	lr
 209              	.L15:
 210 001a C046     		.align	2
 211              	.L14:
 212 001c 00000000 		.word	.LANCHOR0
 213              		.cfi_endproc
 214              	.LFE15:
 215              		.size	delay_micro, .-delay_micro
 216              		.section	.text.delay_mili,"ax",%progbits
 217              		.align	2
 218              		.global	delay_mili
 219              		.code	16
 220              		.thumb_func
 221              		.type	delay_mili, %function
 222              	delay_mili:
 223              	.LFB16:
 102:i2c_lcd.c     **** 
 103:i2c_lcd.c     **** void delay_mili(unsigned int delay) {
 224              		.loc 1 103 0
 225              		.cfi_startproc
 226              		@ args = 0, pretend = 0, frame = 0
 227              		@ frame_needed = 0, uses_anonymous_args = 0
 228              		@ link register save eliminated.
 229              	.LVL15:
 104:i2c_lcd.c     **** 	delay = (int) (delay * 2); //250
 230              		.loc 1 104 0
 231 0000 4000     		lsls	r0, r0, #1
 232              	.LVL16:
 105:i2c_lcd.c     **** 	if (ohm < delay)
 233              		.loc 1 105 0
ARM GAS  C:\Users\ELIASG~1\AppData\Local\Temp\ccTTQmdB.s 			page 7


 234 0002 064B     		ldr	r3, .L19
 235 0004 9B68     		ldr	r3, [r3, #8]
 236 0006 9842     		cmp	r0, r3
 237 0008 03D9     		bls	.L17
 106:i2c_lcd.c     **** 		ohm++;
 238              		.loc 1 106 0
 239 000a 0133     		adds	r3, r3, #1
 240 000c 034A     		ldr	r2, .L19
 241 000e 9360     		str	r3, [r2, #8]
 242 0010 02E0     		b	.L16
 243              	.L17:
 107:i2c_lcd.c     **** 	else
 108:i2c_lcd.c     **** 		ohm = 0;
 244              		.loc 1 108 0
 245 0012 0022     		movs	r2, #0
 246 0014 014B     		ldr	r3, .L19
 247 0016 9A60     		str	r2, [r3, #8]
 248              	.L16:
 109:i2c_lcd.c     **** }
 249              		.loc 1 109 0
 250              		@ sp needed
 251 0018 7047     		bx	lr
 252              	.L20:
 253 001a C046     		.align	2
 254              	.L19:
 255 001c 00000000 		.word	.LANCHOR0
 256              		.cfi_endproc
 257              	.LFE16:
 258              		.size	delay_mili, .-delay_mili
 259              		.section	.text.delay_op,"ax",%progbits
 260              		.align	2
 261              		.global	delay_op
 262              		.code	16
 263              		.thumb_func
 264              		.type	delay_op, %function
 265              	delay_op:
 266              	.LFB17:
 110:i2c_lcd.c     **** 
 111:i2c_lcd.c     **** void delay_op(void) {
 267              		.loc 1 111 0
 268              		.cfi_startproc
 269              		@ args = 0, pretend = 0, frame = 0
 270              		@ frame_needed = 0, uses_anonymous_args = 0
 271              		@ link register save eliminated.
 112:i2c_lcd.c     **** 	asm ("nop");
 272              		.loc 1 112 0
 273              		.syntax divided
 274              	@ 112 "i2c_lcd.c" 1
 275 0000 C046     		nop
 276              	@ 0 "" 2
 113:i2c_lcd.c     **** 	asm ("nop");
 277              		.loc 1 113 0
 278              	@ 113 "i2c_lcd.c" 1
 279 0002 C046     		nop
 280              	@ 0 "" 2
 114:i2c_lcd.c     **** 	asm ("nop");
 281              		.loc 1 114 0
ARM GAS  C:\Users\ELIASG~1\AppData\Local\Temp\ccTTQmdB.s 			page 8


 282              	@ 114 "i2c_lcd.c" 1
 283 0004 C046     		nop
 284              	@ 0 "" 2
 115:i2c_lcd.c     **** 	asm ("nop");
 285              		.loc 1 115 0
 286              	@ 115 "i2c_lcd.c" 1
 287 0006 C046     		nop
 288              	@ 0 "" 2
 116:i2c_lcd.c     **** 	asm ("nop");
 289              		.loc 1 116 0
 290              	@ 116 "i2c_lcd.c" 1
 291 0008 C046     		nop
 292              	@ 0 "" 2
 117:i2c_lcd.c     **** }
 293              		.loc 1 117 0
 294              		.thumb
 295              		.syntax unified
 296              		@ sp needed
 297 000a 7047     		bx	lr
 298              		.cfi_endproc
 299              	.LFE17:
 300              		.size	delay_op, .-delay_op
 301              		.section	.text.lcd_write_uchar_pos,"ax",%progbits
 302              		.align	2
 303              		.global	lcd_write_uchar_pos
 304              		.code	16
 305              		.thumb_func
 306              		.type	lcd_write_uchar_pos, %function
 307              	lcd_write_uchar_pos:
 308              	.LFB18:
 118:i2c_lcd.c     **** 
 119:i2c_lcd.c     **** void lcd_write_uchar_pos(unsigned char dato, unsigned char tipo) {
 309              		.loc 1 119 0
 310              		.cfi_startproc
 311              		@ args = 0, pretend = 0, frame = 0
 312              		@ frame_needed = 0, uses_anonymous_args = 0
 313              	.LVL17:
 314 0000 70B5     		push	{r4, r5, r6, lr}
 315              		.cfi_def_cfa_offset 16
 316              		.cfi_offset 4, -16
 317              		.cfi_offset 5, -12
 318              		.cfi_offset 6, -8
 319              		.cfi_offset 14, -4
 320 0002 0500     		movs	r5, r0
 321 0004 0E00     		movs	r6, r1
 120:i2c_lcd.c     **** 	state = 0x08;
 322              		.loc 1 120 0
 323 0006 0822     		movs	r2, #8
 324 0008 2D4B     		ldr	r3, .L29
 325 000a 1A70     		strb	r2, [r3]
 121:i2c_lcd.c     **** 
 122:i2c_lcd.c     **** 	if (tipo == 0)
 326              		.loc 1 122 0
 327 000c 0029     		cmp	r1, #0
 328 000e 03D1     		bne	.L23
 123:i2c_lcd.c     **** 		i2c_send(state);
 329              		.loc 1 123 0
ARM GAS  C:\Users\ELIASG~1\AppData\Local\Temp\ccTTQmdB.s 			page 9


 330 0010 0820     		movs	r0, #8
 331              	.LVL18:
 332 0012 FFF7FEFF 		bl	i2c_send
 333              	.LVL19:
 334 0016 05E0     		b	.L24
 335              	.LVL20:
 336              	.L23:
 124:i2c_lcd.c     **** 	else {
 125:i2c_lcd.c     **** 		state = 0b00000001 | state;
 337              		.loc 1 125 0
 338 0018 0922     		movs	r2, #9
 339 001a 294B     		ldr	r3, .L29
 340 001c 1A70     		strb	r2, [r3]
 126:i2c_lcd.c     **** 		i2c_send(state);
 341              		.loc 1 126 0
 342 001e 0920     		movs	r0, #9
 343              	.LVL21:
 344 0020 FFF7FEFF 		bl	i2c_send
 345              	.LVL22:
 346              	.L24:
 127:i2c_lcd.c     **** 	}
 128:i2c_lcd.c     **** 
 129:i2c_lcd.c     **** 	state = 0b00000100 | state;
 347              		.loc 1 129 0
 348 0024 264C     		ldr	r4, .L29
 349 0026 2078     		ldrb	r0, [r4]
 350 0028 0423     		movs	r3, #4
 351 002a 1843     		orrs	r0, r3
 352 002c C0B2     		uxtb	r0, r0
 353 002e 2070     		strb	r0, [r4]
 130:i2c_lcd.c     **** 	i2c_send(state);
 354              		.loc 1 130 0
 355 0030 FFF7FEFF 		bl	i2c_send
 356              	.LVL23:
 131:i2c_lcd.c     **** 
 132:i2c_lcd.c     **** 	state = state | (dato & 0b11110000);
 357              		.loc 1 132 0
 358 0034 0F23     		movs	r3, #15
 359 0036 2800     		movs	r0, r5
 360 0038 9843     		bics	r0, r3
 361 003a 2378     		ldrb	r3, [r4]
 362 003c 1843     		orrs	r0, r3
 363 003e 2070     		strb	r0, [r4]
 133:i2c_lcd.c     **** 	i2c_send(state);
 364              		.loc 1 133 0
 365 0040 FFF7FEFF 		bl	i2c_send
 366              	.LVL24:
 134:i2c_lcd.c     **** 
 135:i2c_lcd.c     **** 	state = 0b11111001 & state;
 367              		.loc 1 135 0
 368 0044 2078     		ldrb	r0, [r4]
 369 0046 0623     		movs	r3, #6
 370 0048 9843     		bics	r0, r3
 371 004a 2070     		strb	r0, [r4]
 136:i2c_lcd.c     **** 	i2c_send(state);
 372              		.loc 1 136 0
 373 004c FFF7FEFF 		bl	i2c_send
ARM GAS  C:\Users\ELIASG~1\AppData\Local\Temp\ccTTQmdB.s 			page 10


 374              	.LVL25:
 137:i2c_lcd.c     **** 
 138:i2c_lcd.c     **** 	i2c_idle();
 375              		.loc 1 138 0
 376 0050 FFF7FEFF 		bl	i2c_idle
 377              	.LVL26:
 139:i2c_lcd.c     **** 	delay_op();
 378              		.loc 1 139 0
 379 0054 FFF7FEFF 		bl	delay_op
 380              	.LVL27:
 140:i2c_lcd.c     **** 
 141:i2c_lcd.c     **** 	if (tipo == 0)
 381              		.loc 1 141 0
 382 0058 002E     		cmp	r6, #0
 383 005a 03D1     		bne	.L25
 142:i2c_lcd.c     **** 		delay_mili(2);
 384              		.loc 1 142 0
 385 005c 0220     		movs	r0, #2
 386 005e FFF7FEFF 		bl	delay_mili
 387              	.LVL28:
 388 0062 02E0     		b	.L26
 389              	.L25:
 143:i2c_lcd.c     **** 	else
 144:i2c_lcd.c     **** 		delay_micro(50);
 390              		.loc 1 144 0
 391 0064 3220     		movs	r0, #50
 392 0066 FFF7FEFF 		bl	delay_micro
 393              	.LVL29:
 394              	.L26:
 145:i2c_lcd.c     **** 
 146:i2c_lcd.c     **** 	if (bit4_mode == 1) {
 395              		.loc 1 146 0
 396 006a 164B     		ldr	r3, .L29+4
 397 006c 1B7B     		ldrb	r3, [r3, #12]
 398 006e 012B     		cmp	r3, #1
 399 0070 25D1     		bne	.L22
 147:i2c_lcd.c     **** 		state = state & 0b00001111;
 400              		.loc 1 147 0
 401 0072 134C     		ldr	r4, .L29
 402 0074 2378     		ldrb	r3, [r4]
 403 0076 0F20     		movs	r0, #15
 404 0078 1840     		ands	r0, r3
 148:i2c_lcd.c     **** 		state = 0b00000100 | (state & 0b00001001);
 405              		.loc 1 148 0
 406 007a 0923     		movs	r3, #9
 407 007c 1840     		ands	r0, r3
 408 007e 0423     		movs	r3, #4
 409 0080 1843     		orrs	r0, r3
 410 0082 C0B2     		uxtb	r0, r0
 411 0084 2070     		strb	r0, [r4]
 149:i2c_lcd.c     **** 		i2c_send(state);
 412              		.loc 1 149 0
 413 0086 FFF7FEFF 		bl	i2c_send
 414              	.LVL30:
 150:i2c_lcd.c     **** 		state = state | (dato << 4);
 415              		.loc 1 150 0
 416 008a 2D01     		lsls	r5, r5, #4
ARM GAS  C:\Users\ELIASG~1\AppData\Local\Temp\ccTTQmdB.s 			page 11


 417 008c 2078     		ldrb	r0, [r4]
 418 008e 0543     		orrs	r5, r0
 419 0090 E8B2     		uxtb	r0, r5
 420 0092 2070     		strb	r0, [r4]
 151:i2c_lcd.c     **** 		i2c_send(state);
 421              		.loc 1 151 0
 422 0094 FFF7FEFF 		bl	i2c_send
 423              	.LVL31:
 152:i2c_lcd.c     **** 		state = 0b11111001 & state;
 424              		.loc 1 152 0
 425 0098 2078     		ldrb	r0, [r4]
 426 009a 0623     		movs	r3, #6
 427 009c 9843     		bics	r0, r3
 428 009e 2070     		strb	r0, [r4]
 153:i2c_lcd.c     **** 		i2c_send(state);
 429              		.loc 1 153 0
 430 00a0 FFF7FEFF 		bl	i2c_send
 431              	.LVL32:
 154:i2c_lcd.c     **** 		i2c_idle();
 432              		.loc 1 154 0
 433 00a4 FFF7FEFF 		bl	i2c_idle
 434              	.LVL33:
 155:i2c_lcd.c     **** 		delay_op();
 435              		.loc 1 155 0
 436 00a8 FFF7FEFF 		bl	delay_op
 437              	.LVL34:
 156:i2c_lcd.c     **** 		if (tipo == 0)
 438              		.loc 1 156 0
 439 00ac 002E     		cmp	r6, #0
 440 00ae 03D1     		bne	.L28
 157:i2c_lcd.c     **** 			delay_mili(2);
 441              		.loc 1 157 0
 442 00b0 0220     		movs	r0, #2
 443 00b2 FFF7FEFF 		bl	delay_mili
 444              	.LVL35:
 445 00b6 02E0     		b	.L22
 446              	.L28:
 158:i2c_lcd.c     **** 		else
 159:i2c_lcd.c     **** 			delay_micro(50);
 447              		.loc 1 159 0
 448 00b8 3220     		movs	r0, #50
 449 00ba FFF7FEFF 		bl	delay_micro
 450              	.LVL36:
 451              	.L22:
 160:i2c_lcd.c     **** 	}
 161:i2c_lcd.c     **** 
 162:i2c_lcd.c     **** }
 452              		.loc 1 162 0
 453              		@ sp needed
 454 00be 70BD     		pop	{r4, r5, r6, pc}
 455              	.L30:
 456              		.align	2
 457              	.L29:
 458 00c0 00000000 		.word	state
 459 00c4 00000000 		.word	.LANCHOR0
 460              		.cfi_endproc
 461              	.LFE18:
ARM GAS  C:\Users\ELIASG~1\AppData\Local\Temp\ccTTQmdB.s 			page 12


 462              		.size	lcd_write_uchar_pos, .-lcd_write_uchar_pos
 463              		.section	.text.lcd_line1_pos,"ax",%progbits
 464              		.align	2
 465              		.global	lcd_line1_pos
 466              		.code	16
 467              		.thumb_func
 468              		.type	lcd_line1_pos, %function
 469              	lcd_line1_pos:
 470              	.LFB7:
  56:i2c_lcd.c     **** 	lcd_write_uchar_pos(0b10000000 + posicion, 0);
 471              		.loc 1 56 0
 472              		.cfi_startproc
 473              		@ args = 0, pretend = 0, frame = 0
 474              		@ frame_needed = 0, uses_anonymous_args = 0
 475              	.LVL37:
 476 0000 10B5     		push	{r4, lr}
 477              		.cfi_def_cfa_offset 8
 478              		.cfi_offset 4, -8
 479              		.cfi_offset 14, -4
  57:i2c_lcd.c     **** }
 480              		.loc 1 57 0
 481 0002 8038     		subs	r0, r0, #128
 482              	.LVL38:
 483 0004 C0B2     		uxtb	r0, r0
 484 0006 0021     		movs	r1, #0
 485 0008 FFF7FEFF 		bl	lcd_write_uchar_pos
 486              	.LVL39:
  58:i2c_lcd.c     **** 
 487              		.loc 1 58 0
 488              		@ sp needed
 489 000c 10BD     		pop	{r4, pc}
 490              		.cfi_endproc
 491              	.LFE7:
 492              		.size	lcd_line1_pos, .-lcd_line1_pos
 493 000e C046     		.section	.text.lcd_line2_pos,"ax",%progbits
 494              		.align	2
 495              		.global	lcd_line2_pos
 496              		.code	16
 497              		.thumb_func
 498              		.type	lcd_line2_pos, %function
 499              	lcd_line2_pos:
 500              	.LFB9:
  64:i2c_lcd.c     **** 	lcd_write_uchar_pos(0b11000000 + posicion, 0);
 501              		.loc 1 64 0
 502              		.cfi_startproc
 503              		@ args = 0, pretend = 0, frame = 0
 504              		@ frame_needed = 0, uses_anonymous_args = 0
 505              	.LVL40:
 506 0000 10B5     		push	{r4, lr}
 507              		.cfi_def_cfa_offset 8
 508              		.cfi_offset 4, -8
 509              		.cfi_offset 14, -4
  65:i2c_lcd.c     **** }
 510              		.loc 1 65 0
 511 0002 4038     		subs	r0, r0, #64
 512              	.LVL41:
 513 0004 C0B2     		uxtb	r0, r0
ARM GAS  C:\Users\ELIASG~1\AppData\Local\Temp\ccTTQmdB.s 			page 13


 514 0006 0021     		movs	r1, #0
 515 0008 FFF7FEFF 		bl	lcd_write_uchar_pos
 516              	.LVL42:
  66:i2c_lcd.c     **** 
 517              		.loc 1 66 0
 518              		@ sp needed
 519 000c 10BD     		pop	{r4, pc}
 520              		.cfi_endproc
 521              	.LFE9:
 522              		.size	lcd_line2_pos, .-lcd_line2_pos
 523 000e C046     		.section	.text.lcd_write_int,"ax",%progbits
 524              		.align	2
 525              		.global	lcd_write_int
 526              		.code	16
 527              		.thumb_func
 528              		.type	lcd_write_int, %function
 529              	lcd_write_int:
 530              	.LFB12:
  76:i2c_lcd.c     **** 	lcd_write_uchar_pos(character, 1);
 531              		.loc 1 76 0
 532              		.cfi_startproc
 533              		@ args = 0, pretend = 0, frame = 0
 534              		@ frame_needed = 0, uses_anonymous_args = 0
 535              	.LVL43:
 536 0000 10B5     		push	{r4, lr}
 537              		.cfi_def_cfa_offset 8
 538              		.cfi_offset 4, -8
 539              		.cfi_offset 14, -4
  77:i2c_lcd.c     **** }
 540              		.loc 1 77 0
 541 0002 0121     		movs	r1, #1
 542 0004 FFF7FEFF 		bl	lcd_write_uchar_pos
 543              	.LVL44:
  78:i2c_lcd.c     **** 
 544              		.loc 1 78 0
 545              		@ sp needed
 546 0008 10BD     		pop	{r4, pc}
 547              		.cfi_endproc
 548              	.LFE12:
 549              		.size	lcd_write_int, .-lcd_write_int
 550 000a C046     		.section	.text.lcd_write_uchar,"ax",%progbits
 551              		.align	2
 552              		.global	lcd_write_uchar
 553              		.code	16
 554              		.thumb_func
 555              		.type	lcd_write_uchar, %function
 556              	lcd_write_uchar:
 557              	.LFB19:
 163:i2c_lcd.c     **** 
 164:i2c_lcd.c     **** void lcd_write_uchar(unsigned char dato, unsigned char tipo) {
 558              		.loc 1 164 0
 559              		.cfi_startproc
 560              		@ args = 0, pretend = 0, frame = 0
 561              		@ frame_needed = 0, uses_anonymous_args = 0
 562              	.LVL45:
 563 0000 70B5     		push	{r4, r5, r6, lr}
 564              		.cfi_def_cfa_offset 16
ARM GAS  C:\Users\ELIASG~1\AppData\Local\Temp\ccTTQmdB.s 			page 14


 565              		.cfi_offset 4, -16
 566              		.cfi_offset 5, -12
 567              		.cfi_offset 6, -8
 568              		.cfi_offset 14, -4
 569 0002 0500     		movs	r5, r0
 570 0004 0E00     		movs	r6, r1
 165:i2c_lcd.c     **** 	state = 0x08;
 571              		.loc 1 165 0
 572 0006 0822     		movs	r2, #8
 573 0008 2D4B     		ldr	r3, .L41
 574 000a 1A70     		strb	r2, [r3]
 166:i2c_lcd.c     **** 	i2c_send(dir);
 575              		.loc 1 166 0
 576 000c 2D4B     		ldr	r3, .L41+4
 577 000e 1878     		ldrb	r0, [r3]
 578              	.LVL46:
 579 0010 FFF7FEFF 		bl	i2c_send
 580              	.LVL47:
 167:i2c_lcd.c     **** 	if (tipo == 0) {
 581              		.loc 1 167 0
 582 0014 002E     		cmp	r6, #0
 583 0016 04D1     		bne	.L35
 168:i2c_lcd.c     **** 		i2c_send(state);
 584              		.loc 1 168 0
 585 0018 294B     		ldr	r3, .L41
 586 001a 1878     		ldrb	r0, [r3]
 587 001c FFF7FEFF 		bl	i2c_send
 588              	.LVL48:
 589 0020 07E0     		b	.L36
 590              	.L35:
 169:i2c_lcd.c     **** 	} else {
 170:i2c_lcd.c     **** 		state = 0b00000001 | state;
 591              		.loc 1 170 0
 592 0022 274A     		ldr	r2, .L41
 593 0024 1078     		ldrb	r0, [r2]
 594 0026 0123     		movs	r3, #1
 595 0028 1843     		orrs	r0, r3
 596 002a C0B2     		uxtb	r0, r0
 597 002c 1070     		strb	r0, [r2]
 171:i2c_lcd.c     **** 		i2c_send(state);
 598              		.loc 1 171 0
 599 002e FFF7FEFF 		bl	i2c_send
 600              	.LVL49:
 601              	.L36:
 172:i2c_lcd.c     **** 	}
 173:i2c_lcd.c     **** 	state = 0b00000100 | state;
 602              		.loc 1 173 0
 603 0032 234C     		ldr	r4, .L41
 604 0034 2078     		ldrb	r0, [r4]
 605 0036 0423     		movs	r3, #4
 606 0038 0343     		orrs	r3, r0
 607 003a DBB2     		uxtb	r3, r3
 174:i2c_lcd.c     **** 	state = state | (dato & 0b11110000);
 608              		.loc 1 174 0
 609 003c 0F22     		movs	r2, #15
 610 003e 2800     		movs	r0, r5
 611 0040 9043     		bics	r0, r2
ARM GAS  C:\Users\ELIASG~1\AppData\Local\Temp\ccTTQmdB.s 			page 15


 612 0042 1843     		orrs	r0, r3
 613 0044 2070     		strb	r0, [r4]
 175:i2c_lcd.c     **** 	i2c_send(state);
 614              		.loc 1 175 0
 615 0046 FFF7FEFF 		bl	i2c_send
 616              	.LVL50:
 176:i2c_lcd.c     **** 	state = 0b11111001 & state;
 617              		.loc 1 176 0
 618 004a 2078     		ldrb	r0, [r4]
 619 004c 0623     		movs	r3, #6
 620 004e 9843     		bics	r0, r3
 621 0050 2070     		strb	r0, [r4]
 177:i2c_lcd.c     **** 	i2c_send(state);
 622              		.loc 1 177 0
 623 0052 FFF7FEFF 		bl	i2c_send
 624              	.LVL51:
 178:i2c_lcd.c     **** 	i2c_idle();
 625              		.loc 1 178 0
 626 0056 FFF7FEFF 		bl	i2c_idle
 627              	.LVL52:
 179:i2c_lcd.c     **** 	if (tipo == 0)
 628              		.loc 1 179 0
 629 005a 002E     		cmp	r6, #0
 630 005c 03D1     		bne	.L37
 180:i2c_lcd.c     **** 		delay_ms(2);
 631              		.loc 1 180 0
 632 005e 0220     		movs	r0, #2
 633 0060 FFF7FEFF 		bl	delay_ms
 634              	.LVL53:
 635 0064 02E0     		b	.L38
 636              	.L37:
 181:i2c_lcd.c     **** 	else
 182:i2c_lcd.c     **** 		delay_us(50);
 637              		.loc 1 182 0
 638 0066 3220     		movs	r0, #50
 639 0068 FFF7FEFF 		bl	delay_us
 640              	.LVL54:
 641              	.L38:
 183:i2c_lcd.c     **** 	if (bit4_mode == 1) {
 642              		.loc 1 183 0
 643 006c 164B     		ldr	r3, .L41+8
 644 006e 1B7B     		ldrb	r3, [r3, #12]
 645 0070 012B     		cmp	r3, #1
 646 0072 23D1     		bne	.L34
 184:i2c_lcd.c     **** 		state = state & 0b00001111;
 647              		.loc 1 184 0
 648 0074 124C     		ldr	r4, .L41
 649 0076 2378     		ldrb	r3, [r4]
 650 0078 0F20     		movs	r0, #15
 651 007a 1840     		ands	r0, r3
 185:i2c_lcd.c     **** 		state = 0b00000100 | (state & 0b00001001);
 652              		.loc 1 185 0
 653 007c 0923     		movs	r3, #9
 654 007e 1840     		ands	r0, r3
 655 0080 0423     		movs	r3, #4
 656 0082 1843     		orrs	r0, r3
 657 0084 C0B2     		uxtb	r0, r0
ARM GAS  C:\Users\ELIASG~1\AppData\Local\Temp\ccTTQmdB.s 			page 16


 658 0086 2070     		strb	r0, [r4]
 186:i2c_lcd.c     **** 		i2c_send(state);
 659              		.loc 1 186 0
 660 0088 FFF7FEFF 		bl	i2c_send
 661              	.LVL55:
 187:i2c_lcd.c     **** 		state = state | (dato << 4);
 662              		.loc 1 187 0
 663 008c 2D01     		lsls	r5, r5, #4
 664 008e 2078     		ldrb	r0, [r4]
 665 0090 0543     		orrs	r5, r0
 666 0092 E8B2     		uxtb	r0, r5
 667 0094 2070     		strb	r0, [r4]
 188:i2c_lcd.c     **** 		i2c_send(state);
 668              		.loc 1 188 0
 669 0096 FFF7FEFF 		bl	i2c_send
 670              	.LVL56:
 189:i2c_lcd.c     **** 		state = 0b11111001 & state;
 671              		.loc 1 189 0
 672 009a 2078     		ldrb	r0, [r4]
 673 009c 0623     		movs	r3, #6
 674 009e 9843     		bics	r0, r3
 675 00a0 2070     		strb	r0, [r4]
 190:i2c_lcd.c     **** 		i2c_send(state);
 676              		.loc 1 190 0
 677 00a2 FFF7FEFF 		bl	i2c_send
 678              	.LVL57:
 191:i2c_lcd.c     **** 		i2c_idle();
 679              		.loc 1 191 0
 680 00a6 FFF7FEFF 		bl	i2c_idle
 681              	.LVL58:
 192:i2c_lcd.c     **** 		if (tipo == 0)
 682              		.loc 1 192 0
 683 00aa 002E     		cmp	r6, #0
 684 00ac 03D1     		bne	.L40
 193:i2c_lcd.c     **** 			delay_ms(2);
 685              		.loc 1 193 0
 686 00ae 0220     		movs	r0, #2
 687 00b0 FFF7FEFF 		bl	delay_ms
 688              	.LVL59:
 689 00b4 02E0     		b	.L34
 690              	.L40:
 194:i2c_lcd.c     **** 		else
 195:i2c_lcd.c     **** 			delay_us(50);
 691              		.loc 1 195 0
 692 00b6 3220     		movs	r0, #50
 693 00b8 FFF7FEFF 		bl	delay_us
 694              	.LVL60:
 695              	.L34:
 196:i2c_lcd.c     **** 	}
 197:i2c_lcd.c     **** }
 696              		.loc 1 197 0
 697              		@ sp needed
 698 00bc 70BD     		pop	{r4, r5, r6, pc}
 699              	.L42:
 700 00be C046     		.align	2
 701              	.L41:
 702 00c0 00000000 		.word	state
ARM GAS  C:\Users\ELIASG~1\AppData\Local\Temp\ccTTQmdB.s 			page 17


 703 00c4 00000000 		.word	dir
 704 00c8 00000000 		.word	.LANCHOR0
 705              		.cfi_endproc
 706              	.LFE19:
 707              		.size	lcd_write_uchar, .-lcd_write_uchar
 708              		.section	.text.lcd_clear,"ax",%progbits
 709              		.align	2
 710              		.global	lcd_clear
 711              		.code	16
 712              		.thumb_func
 713              		.type	lcd_clear, %function
 714              	lcd_clear:
 715              	.LFB3:
  39:i2c_lcd.c     **** 	lcd_write_uchar(0b00000001, 0);
 716              		.loc 1 39 0
 717              		.cfi_startproc
 718              		@ args = 0, pretend = 0, frame = 0
 719              		@ frame_needed = 0, uses_anonymous_args = 0
 720 0000 10B5     		push	{r4, lr}
 721              		.cfi_def_cfa_offset 8
 722              		.cfi_offset 4, -8
 723              		.cfi_offset 14, -4
  40:i2c_lcd.c     **** }
 724              		.loc 1 40 0
 725 0002 0021     		movs	r1, #0
 726 0004 0120     		movs	r0, #1
 727 0006 FFF7FEFF 		bl	lcd_write_uchar
 728              	.LVL61:
  41:i2c_lcd.c     **** 
 729              		.loc 1 41 0
 730              		@ sp needed
 731 000a 10BD     		pop	{r4, pc}
 732              		.cfi_endproc
 733              	.LFE3:
 734              		.size	lcd_clear, .-lcd_clear
 735              		.section	.text.lcd_4_bit,"ax",%progbits
 736              		.align	2
 737              		.global	lcd_4_bit
 738              		.code	16
 739              		.thumb_func
 740              		.type	lcd_4_bit, %function
 741              	lcd_4_bit:
 742              	.LFB4:
  43:i2c_lcd.c     **** 	lcd_write_uchar(0b00101000, 0);
 743              		.loc 1 43 0
 744              		.cfi_startproc
 745              		@ args = 0, pretend = 0, frame = 0
 746              		@ frame_needed = 0, uses_anonymous_args = 0
 747 0000 10B5     		push	{r4, lr}
 748              		.cfi_def_cfa_offset 8
 749              		.cfi_offset 4, -8
 750              		.cfi_offset 14, -4
  44:i2c_lcd.c     **** 	bit4_mode = 1;
 751              		.loc 1 44 0
 752 0002 0021     		movs	r1, #0
 753 0004 2820     		movs	r0, #40
 754 0006 FFF7FEFF 		bl	lcd_write_uchar
ARM GAS  C:\Users\ELIASG~1\AppData\Local\Temp\ccTTQmdB.s 			page 18


 755              	.LVL62:
  45:i2c_lcd.c     **** }
 756              		.loc 1 45 0
 757 000a 0122     		movs	r2, #1
 758 000c 014B     		ldr	r3, .L45
 759 000e 1A73     		strb	r2, [r3, #12]
  46:i2c_lcd.c     **** 
 760              		.loc 1 46 0
 761              		@ sp needed
 762 0010 10BD     		pop	{r4, pc}
 763              	.L46:
 764 0012 C046     		.align	2
 765              	.L45:
 766 0014 00000000 		.word	.LANCHOR0
 767              		.cfi_endproc
 768              	.LFE4:
 769              		.size	lcd_4_bit, .-lcd_4_bit
 770              		.section	.text.lcd_cursor_inc,"ax",%progbits
 771              		.align	2
 772              		.global	lcd_cursor_inc
 773              		.code	16
 774              		.thumb_func
 775              		.type	lcd_cursor_inc, %function
 776              	lcd_cursor_inc:
 777              	.LFB5:
  48:i2c_lcd.c     **** 	lcd_write_uchar(0b00000110, 0);
 778              		.loc 1 48 0
 779              		.cfi_startproc
 780              		@ args = 0, pretend = 0, frame = 0
 781              		@ frame_needed = 0, uses_anonymous_args = 0
 782 0000 10B5     		push	{r4, lr}
 783              		.cfi_def_cfa_offset 8
 784              		.cfi_offset 4, -8
 785              		.cfi_offset 14, -4
  49:i2c_lcd.c     **** }
 786              		.loc 1 49 0
 787 0002 0021     		movs	r1, #0
 788 0004 0620     		movs	r0, #6
 789 0006 FFF7FEFF 		bl	lcd_write_uchar
 790              	.LVL63:
  50:i2c_lcd.c     **** 
 791              		.loc 1 50 0
 792              		@ sp needed
 793 000a 10BD     		pop	{r4, pc}
 794              		.cfi_endproc
 795              	.LFE5:
 796              		.size	lcd_cursor_inc, .-lcd_cursor_inc
 797              		.section	.text.lcd_line0,"ax",%progbits
 798              		.align	2
 799              		.global	lcd_line0
 800              		.code	16
 801              		.thumb_func
 802              		.type	lcd_line0, %function
 803              	lcd_line0:
 804              	.LFB6:
  52:i2c_lcd.c     **** 	lcd_write_uchar(0b10000000 + posicion, 0);
 805              		.loc 1 52 0
ARM GAS  C:\Users\ELIASG~1\AppData\Local\Temp\ccTTQmdB.s 			page 19


 806              		.cfi_startproc
 807              		@ args = 0, pretend = 0, frame = 0
 808              		@ frame_needed = 0, uses_anonymous_args = 0
 809              	.LVL64:
 810 0000 10B5     		push	{r4, lr}
 811              		.cfi_def_cfa_offset 8
 812              		.cfi_offset 4, -8
 813              		.cfi_offset 14, -4
  53:i2c_lcd.c     **** }
 814              		.loc 1 53 0
 815 0002 8038     		subs	r0, r0, #128
 816              	.LVL65:
 817 0004 C0B2     		uxtb	r0, r0
 818 0006 0021     		movs	r1, #0
 819 0008 FFF7FEFF 		bl	lcd_write_uchar
 820              	.LVL66:
  54:i2c_lcd.c     **** 
 821              		.loc 1 54 0
 822              		@ sp needed
 823 000c 10BD     		pop	{r4, pc}
 824              		.cfi_endproc
 825              	.LFE6:
 826              		.size	lcd_line0, .-lcd_line0
 827 000e C046     		.section	.text.lcd_line1,"ax",%progbits
 828              		.align	2
 829              		.global	lcd_line1
 830              		.code	16
 831              		.thumb_func
 832              		.type	lcd_line1, %function
 833              	lcd_line1:
 834              	.LFB8:
  60:i2c_lcd.c     **** 	lcd_write_uchar(0b11000000 + posicion, 0);
 835              		.loc 1 60 0
 836              		.cfi_startproc
 837              		@ args = 0, pretend = 0, frame = 0
 838              		@ frame_needed = 0, uses_anonymous_args = 0
 839              	.LVL67:
 840 0000 10B5     		push	{r4, lr}
 841              		.cfi_def_cfa_offset 8
 842              		.cfi_offset 4, -8
 843              		.cfi_offset 14, -4
  61:i2c_lcd.c     **** }
 844              		.loc 1 61 0
 845 0002 4038     		subs	r0, r0, #64
 846              	.LVL68:
 847 0004 C0B2     		uxtb	r0, r0
 848 0006 0021     		movs	r1, #0
 849 0008 FFF7FEFF 		bl	lcd_write_uchar
 850              	.LVL69:
  62:i2c_lcd.c     **** 
 851              		.loc 1 62 0
 852              		@ sp needed
 853 000c 10BD     		pop	{r4, pc}
 854              		.cfi_endproc
 855              	.LFE8:
 856              		.size	lcd_line1, .-lcd_line1
 857 000e C046     		.section	.text.lcd_cursor_on,"ax",%progbits
ARM GAS  C:\Users\ELIASG~1\AppData\Local\Temp\ccTTQmdB.s 			page 20


 858              		.align	2
 859              		.global	lcd_cursor_on
 860              		.code	16
 861              		.thumb_func
 862              		.type	lcd_cursor_on, %function
 863              	lcd_cursor_on:
 864              	.LFB10:
  68:i2c_lcd.c     **** 	lcd_write_uchar(0b00001110, 0);
 865              		.loc 1 68 0
 866              		.cfi_startproc
 867              		@ args = 0, pretend = 0, frame = 0
 868              		@ frame_needed = 0, uses_anonymous_args = 0
 869 0000 10B5     		push	{r4, lr}
 870              		.cfi_def_cfa_offset 8
 871              		.cfi_offset 4, -8
 872              		.cfi_offset 14, -4
  69:i2c_lcd.c     **** }
 873              		.loc 1 69 0
 874 0002 0021     		movs	r1, #0
 875 0004 0E20     		movs	r0, #14
 876 0006 FFF7FEFF 		bl	lcd_write_uchar
 877              	.LVL70:
  70:i2c_lcd.c     **** 
 878              		.loc 1 70 0
 879              		@ sp needed
 880 000a 10BD     		pop	{r4, pc}
 881              		.cfi_endproc
 882              	.LFE10:
 883              		.size	lcd_cursor_on, .-lcd_cursor_on
 884              		.section	.text.I2C_LCD_Init,"ax",%progbits
 885              		.align	2
 886              		.global	I2C_LCD_Init
 887              		.code	16
 888              		.thumb_func
 889              		.type	I2C_LCD_Init, %function
 890              	I2C_LCD_Init:
 891              	.LFB2:
  22:i2c_lcd.c     **** 	dir = address << 1;
 892              		.loc 1 22 0
 893              		.cfi_startproc
 894              		@ args = 0, pretend = 0, frame = 0
 895              		@ frame_needed = 0, uses_anonymous_args = 0
 896              	.LVL71:
 897 0000 10B5     		push	{r4, lr}
 898              		.cfi_def_cfa_offset 8
 899              		.cfi_offset 4, -8
 900              		.cfi_offset 14, -4
  23:i2c_lcd.c     **** 	i2c_send(0x08);
 901              		.loc 1 23 0
 902 0002 4000     		lsls	r0, r0, #1
 903              	.LVL72:
 904 0004 134B     		ldr	r3, .L52
 905 0006 1870     		strb	r0, [r3]
  24:i2c_lcd.c     **** 	state = 0x08;
 906              		.loc 1 24 0
 907 0008 0820     		movs	r0, #8
 908 000a FFF7FEFF 		bl	i2c_send
ARM GAS  C:\Users\ELIASG~1\AppData\Local\Temp\ccTTQmdB.s 			page 21


 909              	.LVL73:
  25:i2c_lcd.c     **** 	i2c_idle();
 910              		.loc 1 25 0
 911 000e 0822     		movs	r2, #8
 912 0010 114B     		ldr	r3, .L52+4
 913 0012 1A70     		strb	r2, [r3]
  26:i2c_lcd.c     **** 	CyDelay(20);
 914              		.loc 1 26 0
 915 0014 FFF7FEFF 		bl	i2c_idle
 916              	.LVL74:
  27:i2c_lcd.c     **** 	lcd_write_uchar(0b00110000, 0);
 917              		.loc 1 27 0
 918 0018 1420     		movs	r0, #20
 919 001a FFF7FEFF 		bl	CyDelay
 920              	.LVL75:
  28:i2c_lcd.c     **** 	CyDelay(5);
 921              		.loc 1 28 0
 922 001e 0021     		movs	r1, #0
 923 0020 3020     		movs	r0, #48
 924 0022 FFF7FEFF 		bl	lcd_write_uchar
 925              	.LVL76:
  29:i2c_lcd.c     **** 	lcd_write_uchar(0b00110000, 0);
 926              		.loc 1 29 0
 927 0026 0520     		movs	r0, #5
 928 0028 FFF7FEFF 		bl	CyDelay
 929              	.LVL77:
  30:i2c_lcd.c     **** 	CyDelay(1);
 930              		.loc 1 30 0
 931 002c 0021     		movs	r1, #0
 932 002e 3020     		movs	r0, #48
 933 0030 FFF7FEFF 		bl	lcd_write_uchar
 934              	.LVL78:
  31:i2c_lcd.c     **** 	lcd_write_uchar(0b00110000, 0);
 935              		.loc 1 31 0
 936 0034 0120     		movs	r0, #1
 937 0036 FFF7FEFF 		bl	CyDelay
 938              	.LVL79:
  32:i2c_lcd.c     **** 	lcd_4_bit();
 939              		.loc 1 32 0
 940 003a 0021     		movs	r1, #0
 941 003c 3020     		movs	r0, #48
 942 003e FFF7FEFF 		bl	lcd_write_uchar
 943              	.LVL80:
  33:i2c_lcd.c     **** 	lcd_cursor_inc();
 944              		.loc 1 33 0
 945 0042 FFF7FEFF 		bl	lcd_4_bit
 946              	.LVL81:
  34:i2c_lcd.c     **** 	lcd_cursor_on();
 947              		.loc 1 34 0
 948 0046 FFF7FEFF 		bl	lcd_cursor_inc
 949              	.LVL82:
  35:i2c_lcd.c     **** 	lcd_clear();
 950              		.loc 1 35 0
 951 004a FFF7FEFF 		bl	lcd_cursor_on
 952              	.LVL83:
  36:i2c_lcd.c     **** }
 953              		.loc 1 36 0
ARM GAS  C:\Users\ELIASG~1\AppData\Local\Temp\ccTTQmdB.s 			page 22


 954 004e FFF7FEFF 		bl	lcd_clear
 955              	.LVL84:
  37:i2c_lcd.c     **** 
 956              		.loc 1 37 0
 957              		@ sp needed
 958 0052 10BD     		pop	{r4, pc}
 959              	.L53:
 960              		.align	2
 961              	.L52:
 962 0054 00000000 		.word	dir
 963 0058 00000000 		.word	state
 964              		.cfi_endproc
 965              	.LFE2:
 966              		.size	I2C_LCD_Init, .-I2C_LCD_Init
 967              		.section	.text.lcd_write_char,"ax",%progbits
 968              		.align	2
 969              		.global	lcd_write_char
 970              		.code	16
 971              		.thumb_func
 972              		.type	lcd_write_char, %function
 973              	lcd_write_char:
 974              	.LFB11:
  72:i2c_lcd.c     **** 	lcd_write_uchar(character, 1);
 975              		.loc 1 72 0
 976              		.cfi_startproc
 977              		@ args = 0, pretend = 0, frame = 0
 978              		@ frame_needed = 0, uses_anonymous_args = 0
 979              	.LVL85:
 980 0000 10B5     		push	{r4, lr}
 981              		.cfi_def_cfa_offset 8
 982              		.cfi_offset 4, -8
 983              		.cfi_offset 14, -4
  73:i2c_lcd.c     **** }
 984              		.loc 1 73 0
 985 0002 0121     		movs	r1, #1
 986 0004 FFF7FEFF 		bl	lcd_write_uchar
 987              	.LVL86:
  74:i2c_lcd.c     **** 
 988              		.loc 1 74 0
 989              		@ sp needed
 990 0008 10BD     		pop	{r4, pc}
 991              		.cfi_endproc
 992              	.LFE11:
 993              		.size	lcd_write_char, .-lcd_write_char
 994              		.comm	tmp_bf,1,1
 995              		.comm	dir,1,1
 996              		.global	bit4_mode
 997              		.comm	state,1,1
 998              		.global	wr_dir
 999              		.global	rti_flag
 1000 000a C046     		.data
 1001              		.type	wr_dir, %object
 1002              		.size	wr_dir, 1
 1003              	wr_dir:
 1004 0000 4E       		.byte	78
 1005              		.bss
 1006              		.align	2
ARM GAS  C:\Users\ELIASG~1\AppData\Local\Temp\ccTTQmdB.s 			page 23


 1007              		.set	.LANCHOR0,. + 0
 1008              		.type	rti_flag, %object
 1009              		.size	rti_flag, 1
 1010              	rti_flag:
 1011 0000 00       		.space	1
 1012 0001 000000   		.space	3
 1013              		.type	pt, %object
 1014              		.size	pt, 4
 1015              	pt:
 1016 0004 00000000 		.space	4
 1017              		.type	ohm, %object
 1018              		.size	ohm, 4
 1019              	ohm:
 1020 0008 00000000 		.space	4
 1021              		.type	bit4_mode, %object
 1022              		.size	bit4_mode, 1
 1023              	bit4_mode:
 1024 000c 00       		.space	1
 1025              		.text
 1026              	.Letext0: