ARM GAS  C:\Users\ELIASG~1\AppData\Local\Temp\ccFN4Bgh.s 			page 1


   1              		.syntax unified
   2              		.cpu cortex-m0
   3              		.fpu softvfp
   4              		.eabi_attribute 20, 1
   5              		.eabi_attribute 21, 1
   6              		.eabi_attribute 23, 3
   7              		.eabi_attribute 24, 1
   8              		.eabi_attribute 25, 1
   9              		.eabi_attribute 26, 1
  10              		.eabi_attribute 30, 1
  11              		.eabi_attribute 34, 0
  12              		.eabi_attribute 18, 4
  13              		.thumb
  14              		.syntax unified
  15              		.file	"Motor.c"
  16              		.text
  17              	.Ltext0:
  18              		.cfi_sections	.debug_frame
  19              		.section	.text.Motor_SetDriveMode,"ax",%progbits
  20              		.align	2
  21              		.global	Motor_SetDriveMode
  22              		.code	16
  23              		.thumb_func
  24              		.type	Motor_SetDriveMode, %function
  25              	Motor_SetDriveMode:
  26              	.LFB0:
  27              		.file 1 "Generated_Source\\PSoC4\\Motor.c"
   1:Generated_Source\PSoC4/Motor.c **** /*******************************************************************************
   2:Generated_Source\PSoC4/Motor.c **** * File Name: Motor.c  
   3:Generated_Source\PSoC4/Motor.c **** * Version 2.20
   4:Generated_Source\PSoC4/Motor.c **** *
   5:Generated_Source\PSoC4/Motor.c **** * Description:
   6:Generated_Source\PSoC4/Motor.c **** *  This file contains API to enable firmware control of a Pins component.
   7:Generated_Source\PSoC4/Motor.c **** *
   8:Generated_Source\PSoC4/Motor.c **** ********************************************************************************
   9:Generated_Source\PSoC4/Motor.c **** * Copyright 2008-2015, Cypress Semiconductor Corporation.  All rights reserved.
  10:Generated_Source\PSoC4/Motor.c **** * You may use this file only in accordance with the license, terms, conditions, 
  11:Generated_Source\PSoC4/Motor.c **** * disclaimers, and limitations in the end user license agreement accompanying 
  12:Generated_Source\PSoC4/Motor.c **** * the software package with which this file was provided.
  13:Generated_Source\PSoC4/Motor.c **** *******************************************************************************/
  14:Generated_Source\PSoC4/Motor.c **** 
  15:Generated_Source\PSoC4/Motor.c **** #include "cytypes.h"
  16:Generated_Source\PSoC4/Motor.c **** #include "Motor.h"
  17:Generated_Source\PSoC4/Motor.c **** 
  18:Generated_Source\PSoC4/Motor.c **** 
  19:Generated_Source\PSoC4/Motor.c **** #if defined(Motor__PC)
  20:Generated_Source\PSoC4/Motor.c ****     #define Motor_SetP4PinDriveMode(shift, mode)  \
  21:Generated_Source\PSoC4/Motor.c ****     do { \
  22:Generated_Source\PSoC4/Motor.c ****         Motor_PC =   (Motor_PC & \
  23:Generated_Source\PSoC4/Motor.c ****                                 (uint32)(~(uint32)(Motor_DRIVE_MODE_IND_MASK << \
  24:Generated_Source\PSoC4/Motor.c ****                                 (Motor_DRIVE_MODE_BITS * (shift))))) | \
  25:Generated_Source\PSoC4/Motor.c ****                                 (uint32)((uint32)(mode) << \
  26:Generated_Source\PSoC4/Motor.c ****                                 (Motor_DRIVE_MODE_BITS * (shift))); \
  27:Generated_Source\PSoC4/Motor.c ****     } while (0)
  28:Generated_Source\PSoC4/Motor.c **** #else
  29:Generated_Source\PSoC4/Motor.c ****     #if (CY_PSOC4_4200L)
  30:Generated_Source\PSoC4/Motor.c ****         #define Motor_SetP4PinDriveMode(shift, mode)  \
ARM GAS  C:\Users\ELIASG~1\AppData\Local\Temp\ccFN4Bgh.s 			page 2


  31:Generated_Source\PSoC4/Motor.c ****         do { \
  32:Generated_Source\PSoC4/Motor.c ****             Motor_USBIO_CTRL_REG = (Motor_USBIO_CTRL_REG & \
  33:Generated_Source\PSoC4/Motor.c ****                                     (uint32)(~(uint32)(Motor_DRIVE_MODE_IND_MASK << \
  34:Generated_Source\PSoC4/Motor.c ****                                     (Motor_DRIVE_MODE_BITS * (shift))))) | \
  35:Generated_Source\PSoC4/Motor.c ****                                     (uint32)((uint32)(mode) << \
  36:Generated_Source\PSoC4/Motor.c ****                                     (Motor_DRIVE_MODE_BITS * (shift))); \
  37:Generated_Source\PSoC4/Motor.c ****         } while (0)
  38:Generated_Source\PSoC4/Motor.c ****     #endif
  39:Generated_Source\PSoC4/Motor.c **** #endif
  40:Generated_Source\PSoC4/Motor.c ****   
  41:Generated_Source\PSoC4/Motor.c **** 
  42:Generated_Source\PSoC4/Motor.c **** #if defined(Motor__PC) || (CY_PSOC4_4200L) 
  43:Generated_Source\PSoC4/Motor.c ****     /*******************************************************************************
  44:Generated_Source\PSoC4/Motor.c ****     * Function Name: Motor_SetDriveMode
  45:Generated_Source\PSoC4/Motor.c ****     ****************************************************************************//**
  46:Generated_Source\PSoC4/Motor.c ****     *
  47:Generated_Source\PSoC4/Motor.c ****     * \brief Sets the drive mode for each of the Pins component's pins.
  48:Generated_Source\PSoC4/Motor.c ****     * 
  49:Generated_Source\PSoC4/Motor.c ****     * <b>Note</b> This affects all pins in the Pins component instance. Use the
  50:Generated_Source\PSoC4/Motor.c ****     * Per-Pin APIs if you wish to control individual pin's drive modes.
  51:Generated_Source\PSoC4/Motor.c ****     *
  52:Generated_Source\PSoC4/Motor.c ****     * <b>Note</b> USBIOs have limited drive functionality. Refer to the Drive Mode
  53:Generated_Source\PSoC4/Motor.c ****     * parameter for more information.
  54:Generated_Source\PSoC4/Motor.c ****     *
  55:Generated_Source\PSoC4/Motor.c ****     * \param mode
  56:Generated_Source\PSoC4/Motor.c ****     *  Mode for the selected signals. Valid options are documented in 
  57:Generated_Source\PSoC4/Motor.c ****     *  \ref driveMode.
  58:Generated_Source\PSoC4/Motor.c ****     *
  59:Generated_Source\PSoC4/Motor.c ****     * \return
  60:Generated_Source\PSoC4/Motor.c ****     *  None
  61:Generated_Source\PSoC4/Motor.c ****     *
  62:Generated_Source\PSoC4/Motor.c ****     * \sideeffect
  63:Generated_Source\PSoC4/Motor.c ****     *  If you use read-modify-write operations that are not atomic, the ISR can
  64:Generated_Source\PSoC4/Motor.c ****     *  cause corruption of this function. An ISR that interrupts this function 
  65:Generated_Source\PSoC4/Motor.c ****     *  and performs writes to the Pins component Drive Mode registers can cause 
  66:Generated_Source\PSoC4/Motor.c ****     *  corrupted port data. To avoid this issue, you should either use the Per-Pin
  67:Generated_Source\PSoC4/Motor.c ****     *  APIs (primary method) or disable interrupts around this function.
  68:Generated_Source\PSoC4/Motor.c ****     *
  69:Generated_Source\PSoC4/Motor.c ****     * \funcusage
  70:Generated_Source\PSoC4/Motor.c ****     *  \snippet Motor_SUT.c usage_Motor_SetDriveMode
  71:Generated_Source\PSoC4/Motor.c ****     *******************************************************************************/
  72:Generated_Source\PSoC4/Motor.c ****     void Motor_SetDriveMode(uint8 mode)
  73:Generated_Source\PSoC4/Motor.c ****     {
  28              		.loc 1 73 0
  29              		.cfi_startproc
  30              		@ args = 0, pretend = 0, frame = 0
  31              		@ frame_needed = 0, uses_anonymous_args = 0
  32              		@ link register save eliminated.
  33              	.LVL0:
  74:Generated_Source\PSoC4/Motor.c **** 		Motor_SetP4PinDriveMode(Motor__0__SHIFT, mode);
  34              		.loc 1 74 0
  35 0000 0C4B     		ldr	r3, .L2
  36 0002 1A68     		ldr	r2, [r3]
  37 0004 0721     		movs	r1, #7
  38 0006 8A43     		bics	r2, r1
  39 0008 0243     		orrs	r2, r0
  40 000a 1A60     		str	r2, [r3]
ARM GAS  C:\Users\ELIASG~1\AppData\Local\Temp\ccFN4Bgh.s 			page 3


  75:Generated_Source\PSoC4/Motor.c **** 		Motor_SetP4PinDriveMode(Motor__1__SHIFT, mode);
  41              		.loc 1 75 0
  42 000c 1A68     		ldr	r2, [r3]
  43 000e 3131     		adds	r1, r1, #49
  44 0010 8A43     		bics	r2, r1
  45 0012 C100     		lsls	r1, r0, #3
  46 0014 0A43     		orrs	r2, r1
  47 0016 1A60     		str	r2, [r3]
  76:Generated_Source\PSoC4/Motor.c **** 		Motor_SetP4PinDriveMode(Motor__2__SHIFT, mode);
  48              		.loc 1 76 0
  49 0018 1968     		ldr	r1, [r3]
  50 001a 074A     		ldr	r2, .L2+4
  51 001c 0A40     		ands	r2, r1
  52 001e 8101     		lsls	r1, r0, #6
  53 0020 0A43     		orrs	r2, r1
  54 0022 1A60     		str	r2, [r3]
  77:Generated_Source\PSoC4/Motor.c **** 		Motor_SetP4PinDriveMode(Motor__3__SHIFT, mode);
  55              		.loc 1 77 0
  56 0024 1968     		ldr	r1, [r3]
  57 0026 054A     		ldr	r2, .L2+8
  58 0028 0A40     		ands	r2, r1
  59 002a 4002     		lsls	r0, r0, #9
  60              	.LVL1:
  61 002c 1043     		orrs	r0, r2
  62 002e 1860     		str	r0, [r3]
  78:Generated_Source\PSoC4/Motor.c ****     }
  63              		.loc 1 78 0
  64              		@ sp needed
  65 0030 7047     		bx	lr
  66              	.L3:
  67 0032 C046     		.align	2
  68              	.L2:
  69 0034 08030440 		.word	1074004744
  70 0038 3FFEFFFF 		.word	-449
  71 003c FFF1FFFF 		.word	-3585
  72              		.cfi_endproc
  73              	.LFE0:
  74              		.size	Motor_SetDriveMode, .-Motor_SetDriveMode
  75              		.section	.text.Motor_Write,"ax",%progbits
  76              		.align	2
  77              		.global	Motor_Write
  78              		.code	16
  79              		.thumb_func
  80              		.type	Motor_Write, %function
  81              	Motor_Write:
  82              	.LFB1:
  79:Generated_Source\PSoC4/Motor.c **** #endif
  80:Generated_Source\PSoC4/Motor.c **** 
  81:Generated_Source\PSoC4/Motor.c **** 
  82:Generated_Source\PSoC4/Motor.c **** /*******************************************************************************
  83:Generated_Source\PSoC4/Motor.c **** * Function Name: Motor_Write
  84:Generated_Source\PSoC4/Motor.c **** ****************************************************************************//**
  85:Generated_Source\PSoC4/Motor.c **** *
  86:Generated_Source\PSoC4/Motor.c **** * \brief Writes the value to the physical port (data output register), masking
  87:Generated_Source\PSoC4/Motor.c **** *  and shifting the bits appropriately. 
  88:Generated_Source\PSoC4/Motor.c **** *
  89:Generated_Source\PSoC4/Motor.c **** * The data output register controls the signal applied to the physical pin in 
ARM GAS  C:\Users\ELIASG~1\AppData\Local\Temp\ccFN4Bgh.s 			page 4


  90:Generated_Source\PSoC4/Motor.c **** * conjunction with the drive mode parameter. This function avoids changing 
  91:Generated_Source\PSoC4/Motor.c **** * other bits in the port by using the appropriate method (read-modify-write or
  92:Generated_Source\PSoC4/Motor.c **** * bit banding).
  93:Generated_Source\PSoC4/Motor.c **** *
  94:Generated_Source\PSoC4/Motor.c **** * <b>Note</b> This function should not be used on a hardware digital output pin 
  95:Generated_Source\PSoC4/Motor.c **** * as it is driven by the hardware signal attached to it.
  96:Generated_Source\PSoC4/Motor.c **** *
  97:Generated_Source\PSoC4/Motor.c **** * \param value
  98:Generated_Source\PSoC4/Motor.c **** *  Value to write to the component instance.
  99:Generated_Source\PSoC4/Motor.c **** *
 100:Generated_Source\PSoC4/Motor.c **** * \return 
 101:Generated_Source\PSoC4/Motor.c **** *  None 
 102:Generated_Source\PSoC4/Motor.c **** *
 103:Generated_Source\PSoC4/Motor.c **** * \sideeffect
 104:Generated_Source\PSoC4/Motor.c **** *  If you use read-modify-write operations that are not atomic; the Interrupt 
 105:Generated_Source\PSoC4/Motor.c **** *  Service Routines (ISR) can cause corruption of this function. An ISR that 
 106:Generated_Source\PSoC4/Motor.c **** *  interrupts this function and performs writes to the Pins component data 
 107:Generated_Source\PSoC4/Motor.c **** *  register can cause corrupted port data. To avoid this issue, you should 
 108:Generated_Source\PSoC4/Motor.c **** *  either use the Per-Pin APIs (primary method) or disable interrupts around 
 109:Generated_Source\PSoC4/Motor.c **** *  this function.
 110:Generated_Source\PSoC4/Motor.c **** *
 111:Generated_Source\PSoC4/Motor.c **** * \funcusage
 112:Generated_Source\PSoC4/Motor.c **** *  \snippet Motor_SUT.c usage_Motor_Write
 113:Generated_Source\PSoC4/Motor.c **** *******************************************************************************/
 114:Generated_Source\PSoC4/Motor.c **** void Motor_Write(uint8 value)
 115:Generated_Source\PSoC4/Motor.c **** {
  83              		.loc 1 115 0
  84              		.cfi_startproc
  85              		@ args = 0, pretend = 0, frame = 0
  86              		@ frame_needed = 0, uses_anonymous_args = 0
  87              		@ link register save eliminated.
  88              	.LVL2:
 116:Generated_Source\PSoC4/Motor.c ****     uint8 drVal = (uint8)(Motor_DR & (uint8)(~Motor_MASK));
  89              		.loc 1 116 0
  90 0000 044A     		ldr	r2, .L5
  91 0002 1368     		ldr	r3, [r2]
  92 0004 DBB2     		uxtb	r3, r3
  93 0006 0F21     		movs	r1, #15
  94 0008 8B43     		bics	r3, r1
  95              	.LVL3:
 117:Generated_Source\PSoC4/Motor.c ****     drVal = (drVal | ((uint8)(value << Motor_SHIFT) & Motor_MASK));
  96              		.loc 1 117 0
  97 000a 0840     		ands	r0, r1
  98              	.LVL4:
  99 000c 1843     		orrs	r0, r3
 100              	.LVL5:
 118:Generated_Source\PSoC4/Motor.c ****     Motor_DR = (uint32)drVal;
 101              		.loc 1 118 0
 102 000e 1060     		str	r0, [r2]
 119:Generated_Source\PSoC4/Motor.c **** }
 103              		.loc 1 119 0
 104              		@ sp needed
 105 0010 7047     		bx	lr
 106              	.L6:
 107 0012 C046     		.align	2
 108              	.L5:
 109 0014 00030440 		.word	1074004736
ARM GAS  C:\Users\ELIASG~1\AppData\Local\Temp\ccFN4Bgh.s 			page 5


 110              		.cfi_endproc
 111              	.LFE1:
 112              		.size	Motor_Write, .-Motor_Write
 113              		.section	.text.Motor_Read,"ax",%progbits
 114              		.align	2
 115              		.global	Motor_Read
 116              		.code	16
 117              		.thumb_func
 118              		.type	Motor_Read, %function
 119              	Motor_Read:
 120              	.LFB2:
 120:Generated_Source\PSoC4/Motor.c **** 
 121:Generated_Source\PSoC4/Motor.c **** 
 122:Generated_Source\PSoC4/Motor.c **** /*******************************************************************************
 123:Generated_Source\PSoC4/Motor.c **** * Function Name: Motor_Read
 124:Generated_Source\PSoC4/Motor.c **** ****************************************************************************//**
 125:Generated_Source\PSoC4/Motor.c **** *
 126:Generated_Source\PSoC4/Motor.c **** * \brief Reads the associated physical port (pin status register) and masks 
 127:Generated_Source\PSoC4/Motor.c **** *  the required bits according to the width and bit position of the component
 128:Generated_Source\PSoC4/Motor.c **** *  instance. 
 129:Generated_Source\PSoC4/Motor.c **** *
 130:Generated_Source\PSoC4/Motor.c **** * The pin's status register returns the current logic level present on the 
 131:Generated_Source\PSoC4/Motor.c **** * physical pin.
 132:Generated_Source\PSoC4/Motor.c **** *
 133:Generated_Source\PSoC4/Motor.c **** * \return 
 134:Generated_Source\PSoC4/Motor.c **** *  The current value for the pins in the component as a right justified number.
 135:Generated_Source\PSoC4/Motor.c **** *
 136:Generated_Source\PSoC4/Motor.c **** * \funcusage
 137:Generated_Source\PSoC4/Motor.c **** *  \snippet Motor_SUT.c usage_Motor_Read  
 138:Generated_Source\PSoC4/Motor.c **** *******************************************************************************/
 139:Generated_Source\PSoC4/Motor.c **** uint8 Motor_Read(void)
 140:Generated_Source\PSoC4/Motor.c **** {
 121              		.loc 1 140 0
 122              		.cfi_startproc
 123              		@ args = 0, pretend = 0, frame = 0
 124              		@ frame_needed = 0, uses_anonymous_args = 0
 125              		@ link register save eliminated.
 141:Generated_Source\PSoC4/Motor.c ****     return (uint8)((Motor_PS & Motor_MASK) >> Motor_SHIFT);
 126              		.loc 1 141 0
 127 0000 024B     		ldr	r3, .L8
 128 0002 1B68     		ldr	r3, [r3]
 129 0004 0F20     		movs	r0, #15
 130 0006 1840     		ands	r0, r3
 142:Generated_Source\PSoC4/Motor.c **** }
 131              		.loc 1 142 0
 132              		@ sp needed
 133 0008 7047     		bx	lr
 134              	.L9:
 135 000a C046     		.align	2
 136              	.L8:
 137 000c 04030440 		.word	1074004740
 138              		.cfi_endproc
 139              	.LFE2:
 140              		.size	Motor_Read, .-Motor_Read
 141              		.section	.text.Motor_ReadDataReg,"ax",%progbits
 142              		.align	2
 143              		.global	Motor_ReadDataReg
ARM GAS  C:\Users\ELIASG~1\AppData\Local\Temp\ccFN4Bgh.s 			page 6


 144              		.code	16
 145              		.thumb_func
 146              		.type	Motor_ReadDataReg, %function
 147              	Motor_ReadDataReg:
 148              	.LFB3:
 143:Generated_Source\PSoC4/Motor.c **** 
 144:Generated_Source\PSoC4/Motor.c **** 
 145:Generated_Source\PSoC4/Motor.c **** /*******************************************************************************
 146:Generated_Source\PSoC4/Motor.c **** * Function Name: Motor_ReadDataReg
 147:Generated_Source\PSoC4/Motor.c **** ****************************************************************************//**
 148:Generated_Source\PSoC4/Motor.c **** *
 149:Generated_Source\PSoC4/Motor.c **** * \brief Reads the associated physical port's data output register and masks 
 150:Generated_Source\PSoC4/Motor.c **** *  the correct bits according to the width and bit position of the component 
 151:Generated_Source\PSoC4/Motor.c **** *  instance. 
 152:Generated_Source\PSoC4/Motor.c **** *
 153:Generated_Source\PSoC4/Motor.c **** * The data output register controls the signal applied to the physical pin in 
 154:Generated_Source\PSoC4/Motor.c **** * conjunction with the drive mode parameter. This is not the same as the 
 155:Generated_Source\PSoC4/Motor.c **** * preferred Motor_Read() API because the 
 156:Generated_Source\PSoC4/Motor.c **** * Motor_ReadDataReg() reads the data register instead of the status 
 157:Generated_Source\PSoC4/Motor.c **** * register. For output pins this is a useful function to determine the value 
 158:Generated_Source\PSoC4/Motor.c **** * just written to the pin.
 159:Generated_Source\PSoC4/Motor.c **** *
 160:Generated_Source\PSoC4/Motor.c **** * \return 
 161:Generated_Source\PSoC4/Motor.c **** *  The current value of the data register masked and shifted into a right 
 162:Generated_Source\PSoC4/Motor.c **** *  justified number for the component instance.
 163:Generated_Source\PSoC4/Motor.c **** *
 164:Generated_Source\PSoC4/Motor.c **** * \funcusage
 165:Generated_Source\PSoC4/Motor.c **** *  \snippet Motor_SUT.c usage_Motor_ReadDataReg 
 166:Generated_Source\PSoC4/Motor.c **** *******************************************************************************/
 167:Generated_Source\PSoC4/Motor.c **** uint8 Motor_ReadDataReg(void)
 168:Generated_Source\PSoC4/Motor.c **** {
 149              		.loc 1 168 0
 150              		.cfi_startproc
 151              		@ args = 0, pretend = 0, frame = 0
 152              		@ frame_needed = 0, uses_anonymous_args = 0
 153              		@ link register save eliminated.
 169:Generated_Source\PSoC4/Motor.c ****     return (uint8)((Motor_DR & Motor_MASK) >> Motor_SHIFT);
 154              		.loc 1 169 0
 155 0000 024B     		ldr	r3, .L11
 156 0002 1B68     		ldr	r3, [r3]
 157 0004 0F20     		movs	r0, #15
 158 0006 1840     		ands	r0, r3
 170:Generated_Source\PSoC4/Motor.c **** }
 159              		.loc 1 170 0
 160              		@ sp needed
 161 0008 7047     		bx	lr
 162              	.L12:
 163 000a C046     		.align	2
 164              	.L11:
 165 000c 00030440 		.word	1074004736
 166              		.cfi_endproc
 167              	.LFE3:
 168              		.size	Motor_ReadDataReg, .-Motor_ReadDataReg
 169              		.section	.text.Motor_SetInterruptMode,"ax",%progbits
 170              		.align	2
 171              		.global	Motor_SetInterruptMode
 172              		.code	16
ARM GAS  C:\Users\ELIASG~1\AppData\Local\Temp\ccFN4Bgh.s 			page 7


 173              		.thumb_func
 174              		.type	Motor_SetInterruptMode, %function
 175              	Motor_SetInterruptMode:
 176              	.LFB4:
 171:Generated_Source\PSoC4/Motor.c **** 
 172:Generated_Source\PSoC4/Motor.c **** 
 173:Generated_Source\PSoC4/Motor.c **** /*******************************************************************************
 174:Generated_Source\PSoC4/Motor.c **** * Function Name: Motor_SetInterruptMode
 175:Generated_Source\PSoC4/Motor.c **** ****************************************************************************//**
 176:Generated_Source\PSoC4/Motor.c **** *
 177:Generated_Source\PSoC4/Motor.c **** * \brief Configures the interrupt mode for each of the Pins component's
 178:Generated_Source\PSoC4/Motor.c **** *  pins. Alternatively you may set the interrupt mode for all the pins
 179:Generated_Source\PSoC4/Motor.c **** *  specified in the Pins component.
 180:Generated_Source\PSoC4/Motor.c **** *
 181:Generated_Source\PSoC4/Motor.c **** *  <b>Note</b> The interrupt is port-wide and therefore any enabled pin
 182:Generated_Source\PSoC4/Motor.c **** *  interrupt may trigger it.
 183:Generated_Source\PSoC4/Motor.c **** *
 184:Generated_Source\PSoC4/Motor.c **** * \param position
 185:Generated_Source\PSoC4/Motor.c **** *  The pin position as listed in the Pins component. You may OR these to be 
 186:Generated_Source\PSoC4/Motor.c **** *  able to configure the interrupt mode of multiple pins within a Pins 
 187:Generated_Source\PSoC4/Motor.c **** *  component. Or you may use Motor_INTR_ALL to configure the
 188:Generated_Source\PSoC4/Motor.c **** *  interrupt mode of all the pins in the Pins component.       
 189:Generated_Source\PSoC4/Motor.c **** *  - Motor_0_INTR       (First pin in the list)
 190:Generated_Source\PSoC4/Motor.c **** *  - Motor_1_INTR       (Second pin in the list)
 191:Generated_Source\PSoC4/Motor.c **** *  - ...
 192:Generated_Source\PSoC4/Motor.c **** *  - Motor_INTR_ALL     (All pins in Pins component)
 193:Generated_Source\PSoC4/Motor.c **** *
 194:Generated_Source\PSoC4/Motor.c **** * \param mode
 195:Generated_Source\PSoC4/Motor.c **** *  Interrupt mode for the selected pins. Valid options are documented in
 196:Generated_Source\PSoC4/Motor.c **** *  \ref intrMode.
 197:Generated_Source\PSoC4/Motor.c **** *
 198:Generated_Source\PSoC4/Motor.c **** * \return 
 199:Generated_Source\PSoC4/Motor.c **** *  None
 200:Generated_Source\PSoC4/Motor.c **** *  
 201:Generated_Source\PSoC4/Motor.c **** * \sideeffect
 202:Generated_Source\PSoC4/Motor.c **** *  It is recommended that the interrupt be disabled before calling this 
 203:Generated_Source\PSoC4/Motor.c **** *  function to avoid unintended interrupt requests. Note that the interrupt
 204:Generated_Source\PSoC4/Motor.c **** *  type is port wide, and therefore will trigger for any enabled pin on the 
 205:Generated_Source\PSoC4/Motor.c **** *  port.
 206:Generated_Source\PSoC4/Motor.c **** *
 207:Generated_Source\PSoC4/Motor.c **** * \funcusage
 208:Generated_Source\PSoC4/Motor.c **** *  \snippet Motor_SUT.c usage_Motor_SetInterruptMode
 209:Generated_Source\PSoC4/Motor.c **** *******************************************************************************/
 210:Generated_Source\PSoC4/Motor.c **** void Motor_SetInterruptMode(uint16 position, uint16 mode)
 211:Generated_Source\PSoC4/Motor.c **** {
 177              		.loc 1 211 0
 178              		.cfi_startproc
 179              		@ args = 0, pretend = 0, frame = 0
 180              		@ frame_needed = 0, uses_anonymous_args = 0
 181              		@ link register save eliminated.
 182              	.LVL6:
 212:Generated_Source\PSoC4/Motor.c ****     uint32 intrCfg;
 213:Generated_Source\PSoC4/Motor.c ****     
 214:Generated_Source\PSoC4/Motor.c ****     intrCfg =  Motor_INTCFG & (uint32)(~(uint32)position);
 183              		.loc 1 214 0
 184 0000 034A     		ldr	r2, .L14
 185 0002 1368     		ldr	r3, [r2]
ARM GAS  C:\Users\ELIASG~1\AppData\Local\Temp\ccFN4Bgh.s 			page 8


 186 0004 8343     		bics	r3, r0
 187              	.LVL7:
 215:Generated_Source\PSoC4/Motor.c ****     Motor_INTCFG = intrCfg | ((uint32)position & (uint32)mode);
 188              		.loc 1 215 0
 189 0006 0840     		ands	r0, r1
 190              	.LVL8:
 191 0008 1843     		orrs	r0, r3
 192 000a 1060     		str	r0, [r2]
 216:Generated_Source\PSoC4/Motor.c **** }
 193              		.loc 1 216 0
 194              		@ sp needed
 195 000c 7047     		bx	lr
 196              	.L15:
 197 000e C046     		.align	2
 198              	.L14:
 199 0010 0C030440 		.word	1074004748
 200              		.cfi_endproc
 201              	.LFE4:
 202              		.size	Motor_SetInterruptMode, .-Motor_SetInterruptMode
 203              		.section	.text.Motor_ClearInterrupt,"ax",%progbits
 204              		.align	2
 205              		.global	Motor_ClearInterrupt
 206              		.code	16
 207              		.thumb_func
 208              		.type	Motor_ClearInterrupt, %function
 209              	Motor_ClearInterrupt:
 210              	.LFB5:
 217:Generated_Source\PSoC4/Motor.c **** 
 218:Generated_Source\PSoC4/Motor.c **** 
 219:Generated_Source\PSoC4/Motor.c **** /*******************************************************************************
 220:Generated_Source\PSoC4/Motor.c **** * Function Name: Motor_ClearInterrupt
 221:Generated_Source\PSoC4/Motor.c **** ****************************************************************************//**
 222:Generated_Source\PSoC4/Motor.c **** *
 223:Generated_Source\PSoC4/Motor.c **** * \brief Clears any active interrupts attached with the component and returns 
 224:Generated_Source\PSoC4/Motor.c **** *  the value of the interrupt status register allowing determination of which
 225:Generated_Source\PSoC4/Motor.c **** *  pins generated an interrupt event.
 226:Generated_Source\PSoC4/Motor.c **** *
 227:Generated_Source\PSoC4/Motor.c **** * \return 
 228:Generated_Source\PSoC4/Motor.c **** *  The right-shifted current value of the interrupt status register. Each pin 
 229:Generated_Source\PSoC4/Motor.c **** *  has one bit set if it generated an interrupt event. For example, bit 0 is 
 230:Generated_Source\PSoC4/Motor.c **** *  for pin 0 and bit 1 is for pin 1 of the Pins component.
 231:Generated_Source\PSoC4/Motor.c **** *  
 232:Generated_Source\PSoC4/Motor.c **** * \sideeffect
 233:Generated_Source\PSoC4/Motor.c **** *  Clears all bits of the physical port's interrupt status register, not just
 234:Generated_Source\PSoC4/Motor.c **** *  those associated with the Pins component.
 235:Generated_Source\PSoC4/Motor.c **** *
 236:Generated_Source\PSoC4/Motor.c **** * \funcusage
 237:Generated_Source\PSoC4/Motor.c **** *  \snippet Motor_SUT.c usage_Motor_ClearInterrupt
 238:Generated_Source\PSoC4/Motor.c **** *******************************************************************************/
 239:Generated_Source\PSoC4/Motor.c **** uint8 Motor_ClearInterrupt(void)
 240:Generated_Source\PSoC4/Motor.c **** {
 211              		.loc 1 240 0
 212              		.cfi_startproc
 213              		@ args = 0, pretend = 0, frame = 0
 214              		@ frame_needed = 0, uses_anonymous_args = 0
 215              		@ link register save eliminated.
 241:Generated_Source\PSoC4/Motor.c **** 	uint8 maskedStatus = (uint8)(Motor_INTSTAT & Motor_MASK);
ARM GAS  C:\Users\ELIASG~1\AppData\Local\Temp\ccFN4Bgh.s 			page 9


 216              		.loc 1 241 0
 217 0000 024A     		ldr	r2, .L17
 218 0002 1068     		ldr	r0, [r2]
 219 0004 0F23     		movs	r3, #15
 220 0006 1840     		ands	r0, r3
 221              	.LVL9:
 242:Generated_Source\PSoC4/Motor.c **** 	Motor_INTSTAT = maskedStatus;
 222              		.loc 1 242 0
 223 0008 1060     		str	r0, [r2]
 243:Generated_Source\PSoC4/Motor.c ****     return maskedStatus >> Motor_SHIFT;
 244:Generated_Source\PSoC4/Motor.c **** }
 224              		.loc 1 244 0
 225              		@ sp needed
 226 000a 7047     		bx	lr
 227              	.L18:
 228              		.align	2
 229              	.L17:
 230 000c 10030440 		.word	1074004752
 231              		.cfi_endproc
 232              	.LFE5:
 233              		.size	Motor_ClearInterrupt, .-Motor_ClearInterrupt
 234              		.text
 235              	.Letext0:
 236              		.file 2 "Generated_Source\\PSoC4\\cytypes.h"